---
triple:          'arm64-apple-darwin'
binary-path:     main
relocations:
  - { offsetInCU: 0x7F, offset: 0x7F, size: 0x8, addend: 0x0, symName: __ZSt23__is_constant_evaluatedv, symObjAddr: 0x0, symBinAddr: 0x100002148, symSize: 0x8 }
  - { offsetInCU: 0x1C3E8, offset: 0x1C3E8, size: 0x8, addend: 0x0, symName: __ZStL8__ioinit, symObjAddr: 0xBB6E0, symBinAddr: 0x100018390, symSize: 0x0 }
  - { offsetInCU: 0x2C566, offset: 0x2C566, size: 0x8, addend: 0x0, symName: __ZNSt8__detail30__integer_to_chars_is_unsignedIjEE, symObjAddr: 0xA790, symBinAddr: 0x10000DCC2, symSize: 0x0 }
  - { offsetInCU: 0x2C580, offset: 0x2C580, size: 0x8, addend: 0x0, symName: __ZNSt8__detail30__integer_to_chars_is_unsignedImEE, symObjAddr: 0xA791, symBinAddr: 0x10000DCC3, symSize: 0x0 }
  - { offsetInCU: 0x2C59A, offset: 0x2C59A, size: 0x8, addend: 0x0, symName: __ZNSt8__detail30__integer_to_chars_is_unsignedIyEE, symObjAddr: 0xA792, symBinAddr: 0x10000DCC4, symSize: 0x0 }
  - { offsetInCU: 0x2C6C5, offset: 0x2C6C5, size: 0x8, addend: 0x0, symName: __ZNSt8__detail30__integer_to_chars_is_unsignedIoEE, symObjAddr: 0xA793, symBinAddr: 0x10000DCC5, symSize: 0x0 }
  - { offsetInCU: 0x2C71F, offset: 0x2C71F, size: 0x8, addend: 0x0, symName: __GLOBAL__sub_I_main.cpp, symObjAddr: 0xA1FC, symBinAddr: 0x10000C344, symSize: 0x14 }
  - { offsetInCU: 0x2C74B, offset: 0x2C74B, size: 0x8, addend: 0x0, symName: __Z41__static_initialization_and_destruction_0v, symObjAddr: 0xA1C0, symBinAddr: 0x10000C308, symSize: 0x3C }
  - { offsetInCU: 0x2C753, offset: 0x2C753, size: 0x8, addend: 0x0, symName: __GLOBAL__sub_I_main.cpp, symObjAddr: 0xA1FC, symBinAddr: 0x10000C344, symSize: 0x14 }
  - { offsetInCU: 0x2C73D, offset: 0x2C73D, size: 0x8, addend: 0x0, symName: __ZNSt11__copy_moveILb0ELb0ESt26random_access_iterator_tagE12__assign_oneIfKfEEvPT_PT0_, symObjAddr: 0xA198, symBinAddr: 0x10000C2E0, symSize: 0x28 }
  - { offsetInCU: 0x2C745, offset: 0x2C745, size: 0x8, addend: 0x0, symName: __Z41__static_initialization_and_destruction_0v, symObjAddr: 0xA1C0, symBinAddr: 0x10000C308, symSize: 0x3C }
  - { offsetInCU: 0x2C79D, offset: 0x2C79D, size: 0x8, addend: 0x0, symName: __ZNSt11__copy_moveILb0ELb1ESt26random_access_iterator_tagE8__copy_mIKffEEPT0_PT_S7_S5_, symObjAddr: 0xA108, symBinAddr: 0x10000C250, symSize: 0x90 }
  - { offsetInCU: 0x2C7A5, offset: 0x2C7A5, size: 0x8, addend: 0x0, symName: __ZNSt11__copy_moveILb0ELb0ESt26random_access_iterator_tagE12__assign_oneIfKfEEvPT_PT0_, symObjAddr: 0xA198, symBinAddr: 0x10000C2E0, symSize: 0x28 }
  - { offsetInCU: 0x2C882, offset: 0x2C882, size: 0x8, addend: 0x0, symName: __ZSt14__copy_move_a2ILb0EPKfPfET1_T0_S4_S3_, symObjAddr: 0xA0DC, symBinAddr: 0x10000C224, symSize: 0x2C }
  - { offsetInCU: 0x2C88A, offset: 0x2C88A, size: 0x8, addend: 0x0, symName: __ZNSt11__copy_moveILb0ELb1ESt26random_access_iterator_tagE8__copy_mIKffEEPT0_PT_S7_S5_, symObjAddr: 0xA108, symBinAddr: 0x10000C250, symSize: 0x90 }
  - { offsetInCU: 0x2C8B4, offset: 0x2C8B4, size: 0x8, addend: 0x0, symName: __ZNK9__gnu_cxx17__normal_iteratorIPKfSt6vectorIfSaIfEEE4baseEv, symObjAddr: 0xA0C8, symBinAddr: 0x10000C210, symSize: 0x14 }
  - { offsetInCU: 0x2C8BC, offset: 0x2C8BC, size: 0x8, addend: 0x0, symName: __ZSt14__copy_move_a2ILb0EPKfPfET1_T0_S4_S3_, symObjAddr: 0xA0DC, symBinAddr: 0x10000C224, symSize: 0x2C }
  - { offsetInCU: 0x2C95B, offset: 0x2C95B, size: 0x8, addend: 0x0, symName: __ZSt9__fill_a1IhEN9__gnu_cxx11__enable_ifIXsrSt9__is_byteIT_E7__valueEvE6__typeEPS3_S7_RKS3_, symObjAddr: 0xA06C, symBinAddr: 0x10000C1B4, symSize: 0x5C }
  - { offsetInCU: 0x2C963, offset: 0x2C963, size: 0x8, addend: 0x0, symName: __ZNK9__gnu_cxx17__normal_iteratorIPKfSt6vectorIfSaIfEEE4baseEv, symObjAddr: 0xA0C8, symBinAddr: 0x10000C210, symSize: 0x14 }
  - { offsetInCU: 0x2C9C4, offset: 0x2C9C4, size: 0x8, addend: 0x0, symName: __ZSt12__niter_wrapIPfET_RKS1_S1_, symObjAddr: 0xA054, symBinAddr: 0x10000C19C, symSize: 0x18 }
  - { offsetInCU: 0x2C9CC, offset: 0x2C9CC, size: 0x8, addend: 0x0, symName: __ZSt9__fill_a1IhEN9__gnu_cxx11__enable_ifIXsrSt9__is_byteIT_E7__valueEvE6__typeEPS3_S7_RKS3_, symObjAddr: 0xA06C, symBinAddr: 0x10000C1B4, symSize: 0x5C }
  - { offsetInCU: 0x2CA3F, offset: 0x2CA3F, size: 0x8, addend: 0x0, symName: __ZSt14__copy_move_a1ILb0EPKfPfET1_T0_S4_S3_, symObjAddr: 0xA028, symBinAddr: 0x10000C170, symSize: 0x2C }
  - { offsetInCU: 0x2CA47, offset: 0x2CA47, size: 0x8, addend: 0x0, symName: __ZSt12__niter_wrapIPfET_RKS1_S1_, symObjAddr: 0xA054, symBinAddr: 0x10000C19C, symSize: 0x18 }
  - { offsetInCU: 0x2CAF8, offset: 0x2CAF8, size: 0x8, addend: 0x0, symName: __ZSt12__niter_baseIPKfSt6vectorIfSaIfEEET_N9__gnu_cxx17__normal_iteratorIS5_T0_EE, symObjAddr: 0xA008, symBinAddr: 0x10000C150, symSize: 0x20 }
  - { offsetInCU: 0x2CB00, offset: 0x2CB00, size: 0x8, addend: 0x0, symName: __ZSt14__copy_move_a1ILb0EPKfPfET1_T0_S4_S3_, symObjAddr: 0xA028, symBinAddr: 0x10000C170, symSize: 0x2C }
  - { offsetInCU: 0x2CACA, offset: 0x2CACA, size: 0x8, addend: 0x0, symName: __ZNSt11__copy_moveILb0ELb0ESt26random_access_iterator_tagE12__assign_oneIhKhEEvPT_PT0_, symObjAddr: 0x9FE0, symBinAddr: 0x10000C128, symSize: 0x28 }
  - { offsetInCU: 0x2CAD2, offset: 0x2CAD2, size: 0x8, addend: 0x0, symName: __ZSt12__niter_baseIPKfSt6vectorIfSaIfEEET_N9__gnu_cxx17__normal_iteratorIS5_T0_EE, symObjAddr: 0xA008, symBinAddr: 0x10000C150, symSize: 0x20 }
  - { offsetInCU: 0x2CB72, offset: 0x2CB72, size: 0x8, addend: 0x0, symName: __ZSt8__fill_aIPhhEvT_S1_RKT0_, symObjAddr: 0x9FB0, symBinAddr: 0x10000C0F8, symSize: 0x30 }
  - { offsetInCU: 0x2CB7A, offset: 0x2CB7A, size: 0x8, addend: 0x0, symName: __ZNSt11__copy_moveILb0ELb0ESt26random_access_iterator_tagE12__assign_oneIhKhEEvPT_PT0_, symObjAddr: 0x9FE0, symBinAddr: 0x10000C128, symSize: 0x28 }
  - { offsetInCU: 0x2CC63, offset: 0x2CC63, size: 0x8, addend: 0x0, symName: __ZSt13__copy_move_aILb0EN9__gnu_cxx17__normal_iteratorIPKfSt6vectorIfSaIfEEEEPfET1_T0_SA_S9_, symObjAddr: 0x9F50, symBinAddr: 0x10000C098, symSize: 0x60 }
  - { offsetInCU: 0x2CC6B, offset: 0x2CC6B, size: 0x8, addend: 0x0, symName: __ZSt8__fill_aIPhhEvT_S1_RKT0_, symObjAddr: 0x9FB0, symBinAddr: 0x10000C0F8, symSize: 0x30 }
  - { offsetInCU: 0x2CCD5, offset: 0x2CCD5, size: 0x8, addend: 0x0, symName: __ZSt12__miter_baseIN9__gnu_cxx17__normal_iteratorIPKfSt6vectorIfSaIfEEEEET_S8_, symObjAddr: 0x9F3C, symBinAddr: 0x10000C084, symSize: 0x14 }
  - { offsetInCU: 0x2CCDD, offset: 0x2CCDD, size: 0x8, addend: 0x0, symName: __ZSt13__copy_move_aILb0EN9__gnu_cxx17__normal_iteratorIPKfSt6vectorIfSaIfEEEEPfET1_T0_SA_S9_, symObjAddr: 0x9F50, symBinAddr: 0x10000C098, symSize: 0x60 }
  - { offsetInCU: 0x2CC7E, offset: 0x2CC7E, size: 0x8, addend: 0x0, symName: __ZNSt11__copy_moveILb0ELb1ESt26random_access_iterator_tagE8__copy_mIKhhEEPT0_PT_S7_S5_, symObjAddr: 0x9EB8, symBinAddr: 0x10000C000, symSize: 0x84 }
  - { offsetInCU: 0x2CC86, offset: 0x2CC86, size: 0x8, addend: 0x0, symName: __ZSt12__miter_baseIN9__gnu_cxx17__normal_iteratorIPKfSt6vectorIfSaIfEEEEET_S8_, symObjAddr: 0x9F3C, symBinAddr: 0x10000C084, symSize: 0x14 }
  - { offsetInCU: 0x2CDB6, offset: 0x2CDB6, size: 0x8, addend: 0x0, symName: __ZSt14__relocate_a_1IhhENSt9enable_ifIXsrSt24__is_bitwise_relocatableIT_vE5valueEPS2_E4typeES4_S4_S4_RSaIT0_E, symObjAddr: 0x9E5C, symBinAddr: 0x10000BFA4, symSize: 0x5C }
  - { offsetInCU: 0x2CDBE, offset: 0x2CDBE, size: 0x8, addend: 0x0, symName: __ZNSt11__copy_moveILb0ELb1ESt26random_access_iterator_tagE8__copy_mIKhhEEPT0_PT_S7_S5_, symObjAddr: 0x9EB8, symBinAddr: 0x10000C000, symSize: 0x84 }
  - { offsetInCU: 0x2CEB7, offset: 0x2CEB7, size: 0x8, addend: 0x0, symName: __ZSt19__relocate_object_aISt6vectorIhSaIhEES2_SaIS2_EEvPT_PT0_RT1_, symObjAddr: 0x9D8C, symBinAddr: 0x10000BED4, symSize: 0xD0 }
  - { offsetInCU: 0x2CEBF, offset: 0x2CEBF, size: 0x8, addend: 0x0, symName: __ZSt14__relocate_a_1IhhENSt9enable_ifIXsrSt24__is_bitwise_relocatableIT_vE5valueEPS2_E4typeES4_S4_S4_RSaIT0_E, symObjAddr: 0x9E5C, symBinAddr: 0x10000BFA4, symSize: 0x5C }
  - { offsetInCU: 0x2D010, offset: 0x2D010, size: 0x8, addend: 0x0, symName: __ZSt10__fill_n_aIPhmhET_S1_T0_RKT1_St26random_access_iterator_tag, symObjAddr: 0x9D30, symBinAddr: 0x10000BE78, symSize: 0x5C }
  - { offsetInCU: 0x2D018, offset: 0x2D018, size: 0x8, addend: 0x0, symName: __ZSt19__relocate_object_aISt6vectorIhSaIhEES2_SaIS2_EEvPT_PT0_RT1_, symObjAddr: 0x9D8C, symBinAddr: 0x10000BED4, symSize: 0xD0 }
  - { offsetInCU: 0x2D055, offset: 0x2D055, size: 0x8, addend: 0x0, symName: __ZNSt11__copy_moveILb0ELb0ESt26random_access_iterator_tagE12__assign_oneIiKiEEvPT_PT0_, symObjAddr: 0x9D08, symBinAddr: 0x10000BE50, symSize: 0x28 }
  - { offsetInCU: 0x2D05D, offset: 0x2D05D, size: 0x8, addend: 0x0, symName: __ZSt10__fill_n_aIPhmhET_S1_T0_RKT1_St26random_access_iterator_tag, symObjAddr: 0x9D30, symBinAddr: 0x10000BE78, symSize: 0x5C }
  - { offsetInCU: 0x2D156, offset: 0x2D156, size: 0x8, addend: 0x0, symName: __ZNSt4pairISt6vectorIfSaIfEEiEC1EOS3_, symObjAddr: 0x9CD0, symBinAddr: 0x10000BE18, symSize: 0x38 }
  - { offsetInCU: 0x2D15E, offset: 0x2D15E, size: 0x8, addend: 0x0, symName: __ZNSt11__copy_moveILb0ELb0ESt26random_access_iterator_tagE12__assign_oneIiKiEEvPT_PT0_, symObjAddr: 0x9D08, symBinAddr: 0x10000BE50, symSize: 0x28 }
  - { offsetInCU: 0x2D1EC, offset: 0x2D1EC, size: 0x8, addend: 0x0, symName: __ZSt7forwardISt4pairISt6vectorIfSaIfEEiEEOT_RNSt16remove_referenceIS5_E4typeE, symObjAddr: 0x9CBC, symBinAddr: 0x10000BE04, symSize: 0x14 }
  - { offsetInCU: 0x2D1F4, offset: 0x2D1F4, size: 0x8, addend: 0x0, symName: __ZNSt4pairISt6vectorIfSaIfEEiEC1EOS3_, symObjAddr: 0x9CD0, symBinAddr: 0x10000BE18, symSize: 0x38 }
  - { offsetInCU: 0x2D264, offset: 0x2D264, size: 0x8, addend: 0x0, symName: __ZSt4copyIN9__gnu_cxx17__normal_iteratorIPKfSt6vectorIfSaIfEEEEPfET0_T_SA_S9_, symObjAddr: 0x9C74, symBinAddr: 0x10000BDBC, symSize: 0x48 }
  - { offsetInCU: 0x2D26C, offset: 0x2D26C, size: 0x8, addend: 0x0, symName: __ZSt7forwardISt4pairISt6vectorIfSaIfEEiEEOT_RNSt16remove_referenceIS5_E4typeE, symObjAddr: 0x9CBC, symBinAddr: 0x10000BE04, symSize: 0x14 }
  - { offsetInCU: 0x2D2CC, offset: 0x2D2CC, size: 0x8, addend: 0x0, symName: __ZSt14__copy_move_a2ILb0EPKhPhET1_T0_S4_S3_, symObjAddr: 0x9C48, symBinAddr: 0x10000BD90, symSize: 0x2C }
  - { offsetInCU: 0x2D2D4, offset: 0x2D2D4, size: 0x8, addend: 0x0, symName: __ZSt4copyIN9__gnu_cxx17__normal_iteratorIPKfSt6vectorIfSaIfEEEEPfET0_T_SA_S9_, symObjAddr: 0x9C74, symBinAddr: 0x10000BDBC, symSize: 0x48 }
  - { offsetInCU: 0x2D2EE, offset: 0x2D2EE, size: 0x8, addend: 0x0, symName: __ZNK9__gnu_cxx17__normal_iteratorIPKhSt6vectorIhSaIhEEE4baseEv, symObjAddr: 0x9C34, symBinAddr: 0x10000BD7C, symSize: 0x14 }
  - { offsetInCU: 0x2D2F6, offset: 0x2D2F6, size: 0x8, addend: 0x0, symName: __ZSt14__copy_move_a2ILb0EPKhPhET1_T0_S4_S3_, symObjAddr: 0x9C48, symBinAddr: 0x10000BD90, symSize: 0x2C }
  - { offsetInCU: 0x2D39D, offset: 0x2D39D, size: 0x8, addend: 0x0, symName: __ZSt12__relocate_aIPhS0_SaIhEET0_T_S3_S2_RT1_, symObjAddr: 0x9BD8, symBinAddr: 0x10000BD20, symSize: 0x5C }
  - { offsetInCU: 0x2D3A5, offset: 0x2D3A5, size: 0x8, addend: 0x0, symName: __ZNK9__gnu_cxx17__normal_iteratorIPKhSt6vectorIhSaIhEEE4baseEv, symObjAddr: 0x9C34, symBinAddr: 0x10000BD7C, symSize: 0x14 }
  - { offsetInCU: 0x2D3BF, offset: 0x2D3BF, size: 0x8, addend: 0x0, symName: __ZNK9__gnu_cxx17__normal_iteratorIPSt6vectorIhSaIhEES1_IS3_SaIS3_EEEdeEv, symObjAddr: 0x9BC0, symBinAddr: 0x10000BD08, symSize: 0x18 }
  - { offsetInCU: 0x2D3C7, offset: 0x2D3C7, size: 0x8, addend: 0x0, symName: __ZSt12__relocate_aIPhS0_SaIhEET0_T_S3_S2_RT1_, symObjAddr: 0x9BD8, symBinAddr: 0x10000BD20, symSize: 0x5C }
  - { offsetInCU: 0x2D3EE, offset: 0x2D3EE, size: 0x8, addend: 0x0, symName: __ZNK9__gnu_cxx17__normal_iteratorIPSt6vectorIhSaIhEES1_IS3_SaIS3_EEEmiEl, symObjAddr: 0x9B70, symBinAddr: 0x10000BCB8, symSize: 0x50 }
  - { offsetInCU: 0x2D3F6, offset: 0x2D3F6, size: 0x8, addend: 0x0, symName: __ZNK9__gnu_cxx17__normal_iteratorIPSt6vectorIhSaIhEES1_IS3_SaIS3_EEEdeEv, symObjAddr: 0x9BC0, symBinAddr: 0x10000BD08, symSize: 0x18 }
  - { offsetInCU: 0x2D46E, offset: 0x2D46E, size: 0x8, addend: 0x0, symName: __ZNK9__gnu_cxx17__normal_iteratorIPSt6vectorIhSaIhEES1_IS3_SaIS3_EEE4baseEv, symObjAddr: 0x9B5C, symBinAddr: 0x10000BCA4, symSize: 0x14 }
  - { offsetInCU: 0x2D476, offset: 0x2D476, size: 0x8, addend: 0x0, symName: __ZNK9__gnu_cxx17__normal_iteratorIPSt6vectorIhSaIhEES1_IS3_SaIS3_EEEmiEl, symObjAddr: 0x9B70, symBinAddr: 0x10000BCB8, symSize: 0x50 }
  - { offsetInCU: 0x2D55F, offset: 0x2D55F, size: 0x8, addend: 0x0, symName: __ZN9__gnu_cxxmiIPSt6vectorIhSaIhEES1_IS3_SaIS3_EEEENS_17__normal_iteratorIT_T0_E15difference_typeERKSA_SD_, symObjAddr: 0x9B10, symBinAddr: 0x10000BC58, symSize: 0x4C }
  - { offsetInCU: 0x2D567, offset: 0x2D567, size: 0x8, addend: 0x0, symName: __ZNK9__gnu_cxx17__normal_iteratorIPSt6vectorIhSaIhEES1_IS3_SaIS3_EEE4baseEv, symObjAddr: 0x9B5C, symBinAddr: 0x10000BCA4, symSize: 0x14 }
  - { offsetInCU: 0x2D514, offset: 0x2D514, size: 0x8, addend: 0x0, symName: __ZNSt6vectorIS_IhSaIhEESaIS1_EE5beginEv, symObjAddr: 0x9AEC, symBinAddr: 0x10000BC34, symSize: 0x24 }
  - { offsetInCU: 0x2D51C, offset: 0x2D51C, size: 0x8, addend: 0x0, symName: __ZN9__gnu_cxxmiIPSt6vectorIhSaIhEES1_IS3_SaIS3_EEEENS_17__normal_iteratorIT_T0_E15difference_typeERKSA_SD_, symObjAddr: 0x9B10, symBinAddr: 0x10000BC58, symSize: 0x4C }
  - { offsetInCU: 0x2D543, offset: 0x2D543, size: 0x8, addend: 0x0, symName: __ZNKSt6vectorIS_IhSaIhEESaIS1_EE12_M_check_lenEmPKc, symObjAddr: 0x9A1C, symBinAddr: 0x10000BB64, symSize: 0xD0 }
  - { offsetInCU: 0x2D54B, offset: 0x2D54B, size: 0x8, addend: 0x0, symName: __ZNSt6vectorIS_IhSaIhEESaIS1_EE5beginEv, symObjAddr: 0x9AEC, symBinAddr: 0x10000BC34, symSize: 0x24 }
  - { offsetInCU: 0x2D627, offset: 0x2D627, size: 0x8, addend: 0x0, symName: __ZN9__gnu_cxx17__normal_iteratorIPSt6vectorIhSaIhEES1_IS3_SaIS3_EEEC1ERKS4_, symObjAddr: 0x99F4, symBinAddr: 0x10000BB3C, symSize: 0x28 }
  - { offsetInCU: 0x2D62F, offset: 0x2D62F, size: 0x8, addend: 0x0, symName: __ZNKSt6vectorIS_IhSaIhEESaIS1_EE12_M_check_lenEmPKc, symObjAddr: 0x9A1C, symBinAddr: 0x10000BB64, symSize: 0xD0 }
  - { offsetInCU: 0x2D72D, offset: 0x2D72D, size: 0x8, addend: 0x0, symName: __ZSt14__relocate_a_1IPSt6vectorIhSaIhEES3_SaIS2_EET0_T_S6_S5_RT1_, symObjAddr: 0x9970, symBinAddr: 0x10000BAB8, symSize: 0x84 }
  - { offsetInCU: 0x2D735, offset: 0x2D735, size: 0x8, addend: 0x0, symName: __ZN9__gnu_cxx17__normal_iteratorIPSt6vectorIhSaIhEES1_IS3_SaIS3_EEEC1ERKS4_, symObjAddr: 0x99F4, symBinAddr: 0x10000BB3C, symSize: 0x28 }
  - { offsetInCU: 0x2D780, offset: 0x2D780, size: 0x8, addend: 0x0, symName: __ZSt12__niter_baseIPSt6vectorIhSaIhEEET_S4_, symObjAddr: 0x995C, symBinAddr: 0x10000BAA4, symSize: 0x14 }
  - { offsetInCU: 0x2D788, offset: 0x2D788, size: 0x8, addend: 0x0, symName: __ZSt14__relocate_a_1IPSt6vectorIhSaIhEES3_SaIS2_EET0_T_S6_S5_RT1_, symObjAddr: 0x9970, symBinAddr: 0x10000BAB8, symSize: 0x84 }
  - { offsetInCU: 0x2D7EC, offset: 0x2D7EC, size: 0x8, addend: 0x0, symName: __ZSt6fill_nIPhmhET_S1_T0_RKT1_, symObjAddr: 0x9914, symBinAddr: 0x10000BA5C, symSize: 0x48 }
  - { offsetInCU: 0x2D7F4, offset: 0x2D7F4, size: 0x8, addend: 0x0, symName: __ZSt12__niter_baseIPSt6vectorIhSaIhEEET_S4_, symObjAddr: 0x995C, symBinAddr: 0x10000BAA4, symSize: 0x14 }
  - { offsetInCU: 0x2D87C, offset: 0x2D87C, size: 0x8, addend: 0x0, symName: __ZSt10_ConstructIhJEEvPT_DpOT0_, symObjAddr: 0x98E8, symBinAddr: 0x10000BA30, symSize: 0x2C }
  - { offsetInCU: 0x2D884, offset: 0x2D884, size: 0x8, addend: 0x0, symName: __ZSt6fill_nIPhmhET_S1_T0_RKT1_, symObjAddr: 0x9914, symBinAddr: 0x10000BA5C, symSize: 0x48 }
  - { offsetInCU: 0x2D8CC, offset: 0x2D8CC, size: 0x8, addend: 0x0, symName: __ZSt11__addressofIhEPT_RS0_, symObjAddr: 0x98D4, symBinAddr: 0x10000BA1C, symSize: 0x14 }
  - { offsetInCU: 0x2D8D4, offset: 0x2D8D4, size: 0x8, addend: 0x0, symName: __ZSt10_ConstructIhJEEvPT_DpOT0_, symObjAddr: 0x98E8, symBinAddr: 0x10000BA30, symSize: 0x2C }
  - { offsetInCU: 0x2D8DD, offset: 0x2D8DD, size: 0x8, addend: 0x0, symName: __ZNK9__gnu_cxx17__normal_iteratorIPKSt4pairISt6vectorIfSaIfEEiES2_IS5_SaIS5_EEE4baseEv, symObjAddr: 0x98C0, symBinAddr: 0x10000BA08, symSize: 0x14 }
  - { offsetInCU: 0x2D8E5, offset: 0x2D8E5, size: 0x8, addend: 0x0, symName: __ZSt11__addressofIhEPT_RS0_, symObjAddr: 0x98D4, symBinAddr: 0x10000BA1C, symSize: 0x14 }
  - { offsetInCU: 0x2D90C, offset: 0x2D90C, size: 0x8, addend: 0x0, symName: __ZNSt11__copy_moveILb0ELb1ESt26random_access_iterator_tagE8__copy_mIKiiEEPT0_PT_S7_S5_, symObjAddr: 0x9830, symBinAddr: 0x10000B978, symSize: 0x90 }
  - { offsetInCU: 0x2D914, offset: 0x2D914, size: 0x8, addend: 0x0, symName: __ZNK9__gnu_cxx17__normal_iteratorIPKSt4pairISt6vectorIfSaIfEEiES2_IS5_SaIS5_EEE4baseEv, symObjAddr: 0x98C0, symBinAddr: 0x10000BA08, symSize: 0x14 }
  - { offsetInCU: 0x2DA6A, offset: 0x2DA6A, size: 0x8, addend: 0x0, symName: __ZSt4moveIRSt4pairISt6vectorIfSaIfEEiEEONSt16remove_referenceIT_E4typeEOS7_, symObjAddr: 0x981C, symBinAddr: 0x10000B964, symSize: 0x14 }
  - { offsetInCU: 0x2DA72, offset: 0x2DA72, size: 0x8, addend: 0x0, symName: __ZNSt11__copy_moveILb0ELb1ESt26random_access_iterator_tagE8__copy_mIKiiEEPT0_PT_S7_S5_, symObjAddr: 0x9830, symBinAddr: 0x10000B978, symSize: 0x90 }
  - { offsetInCU: 0x2DA61, offset: 0x2DA61, size: 0x8, addend: 0x0, symName: __ZNSt20__uninitialized_copyILb1EE13__uninit_copyIN9__gnu_cxx17__normal_iteratorIPKfSt6vectorIfSaIfEEEEPfEET0_T_SC_SB_, symObjAddr: 0x97F0, symBinAddr: 0x10000B938, symSize: 0x2C }
  - { offsetInCU: 0x2DA69, offset: 0x2DA69, size: 0x8, addend: 0x0, symName: __ZSt4moveIRSt4pairISt6vectorIfSaIfEEiEEONSt16remove_referenceIT_E4typeEOS7_, symObjAddr: 0x981C, symBinAddr: 0x10000B964, symSize: 0x14 }
  - { offsetInCU: 0x2DB51, offset: 0x2DB51, size: 0x8, addend: 0x0, symName: __ZSt12__niter_wrapIPhET_RKS1_S1_, symObjAddr: 0x97D8, symBinAddr: 0x10000B920, symSize: 0x18 }
  - { offsetInCU: 0x2DB59, offset: 0x2DB59, size: 0x8, addend: 0x0, symName: __ZNSt20__uninitialized_copyILb1EE13__uninit_copyIN9__gnu_cxx17__normal_iteratorIPKfSt6vectorIfSaIfEEEEPfEET0_T_SC_SB_, symObjAddr: 0x97F0, symBinAddr: 0x10000B938, symSize: 0x2C }
  - { offsetInCU: 0x2DBD4, offset: 0x2DBD4, size: 0x8, addend: 0x0, symName: __ZSt14__copy_move_a1ILb0EPKhPhET1_T0_S4_S3_, symObjAddr: 0x97AC, symBinAddr: 0x10000B8F4, symSize: 0x2C }
  - { offsetInCU: 0x2DBDC, offset: 0x2DBDC, size: 0x8, addend: 0x0, symName: __ZSt12__niter_wrapIPhET_RKS1_S1_, symObjAddr: 0x97D8, symBinAddr: 0x10000B920, symSize: 0x18 }
  - { offsetInCU: 0x2DC34, offset: 0x2DC34, size: 0x8, addend: 0x0, symName: __ZSt12__niter_baseIPhET_S1_, symObjAddr: 0x9798, symBinAddr: 0x10000B8E0, symSize: 0x14 }
  - { offsetInCU: 0x2DC3C, offset: 0x2DC3C, size: 0x8, addend: 0x0, symName: __ZSt14__copy_move_a1ILb0EPKhPhET1_T0_S4_S3_, symObjAddr: 0x97AC, symBinAddr: 0x10000B8F4, symSize: 0x2C }
  - { offsetInCU: 0x2DCD9, offset: 0x2DCD9, size: 0x8, addend: 0x0, symName: __ZSt12__niter_baseIPKhSt6vectorIhSaIhEEET_N9__gnu_cxx17__normal_iteratorIS5_T0_EE, symObjAddr: 0x9778, symBinAddr: 0x10000B8C0, symSize: 0x20 }
  - { offsetInCU: 0x2DCE1, offset: 0x2DCE1, size: 0x8, addend: 0x0, symName: __ZSt12__niter_baseIPhET_S1_, symObjAddr: 0x9798, symBinAddr: 0x10000B8E0, symSize: 0x14 }
  - { offsetInCU: 0x2DD2B, offset: 0x2DD2B, size: 0x8, addend: 0x0, symName: __ZSt7forwardIRKSt6vectorIhSaIhEEEOT_RNSt16remove_referenceIS5_E4typeE, symObjAddr: 0x9764, symBinAddr: 0x10000B8AC, symSize: 0x14 }
  - { offsetInCU: 0x2DD33, offset: 0x2DD33, size: 0x8, addend: 0x0, symName: __ZSt12__niter_baseIPKhSt6vectorIhSaIhEEET_N9__gnu_cxx17__normal_iteratorIS5_T0_EE, symObjAddr: 0x9778, symBinAddr: 0x10000B8C0, symSize: 0x20 }
  - { offsetInCU: 0x2DD0C, offset: 0x2DD0C, size: 0x8, addend: 0x0, symName: __ZNK9__gnu_cxx17__normal_iteratorIPKSt6vectorIhSaIhEES1_IS3_SaIS3_EEE4baseEv, symObjAddr: 0x9750, symBinAddr: 0x10000B898, symSize: 0x14 }
  - { offsetInCU: 0x2DD14, offset: 0x2DD14, size: 0x8, addend: 0x0, symName: __ZSt7forwardIRKSt6vectorIhSaIhEEEOT_RNSt16remove_referenceIS5_E4typeE, symObjAddr: 0x9764, symBinAddr: 0x10000B8AC, symSize: 0x14 }
  - { offsetInCU: 0x2DD56, offset: 0x2DD56, size: 0x8, addend: 0x0, symName: __ZNSt6vectorIhSaIhEE11_S_relocateEPhS2_S2_RS0_, symObjAddr: 0x971C, symBinAddr: 0x10000B864, symSize: 0x34 }
  - { offsetInCU: 0x2DD5E, offset: 0x2DD5E, size: 0x8, addend: 0x0, symName: __ZNK9__gnu_cxx17__normal_iteratorIPKSt6vectorIhSaIhEES1_IS3_SaIS3_EEE4baseEv, symObjAddr: 0x9750, symBinAddr: 0x10000B898, symSize: 0x14 }
  - { offsetInCU: 0x2DDC4, offset: 0x2DDC4, size: 0x8, addend: 0x0, symName: __ZNKSt6vectorIhSaIhEE12_M_check_lenEmPKc, symObjAddr: 0x964C, symBinAddr: 0x10000B794, symSize: 0xD0 }
  - { offsetInCU: 0x2DDCC, offset: 0x2DDCC, size: 0x8, addend: 0x0, symName: __ZNSt6vectorIhSaIhEE11_S_relocateEPhS2_S2_RS0_, symObjAddr: 0x971C, symBinAddr: 0x10000B864, symSize: 0x34 }
  - { offsetInCU: 0x2DE2F, offset: 0x2DE2F, size: 0x8, addend: 0x0, symName: __ZNKSt6vectorIhSaIhEE8max_sizeEv, symObjAddr: 0x962C, symBinAddr: 0x10000B774, symSize: 0x20 }
  - { offsetInCU: 0x2DE37, offset: 0x2DE37, size: 0x8, addend: 0x0, symName: __ZNKSt6vectorIhSaIhEE12_M_check_lenEmPKc, symObjAddr: 0x964C, symBinAddr: 0x10000B794, symSize: 0xD0 }
  - { offsetInCU: 0x2DE5E, offset: 0x2DE5E, size: 0x8, addend: 0x0, symName: __ZNSt6vectorIS_IhSaIhEESaIS1_EE4backEv, symObjAddr: 0x95F4, symBinAddr: 0x10000B73C, symSize: 0x38 }
  - { offsetInCU: 0x2DE66, offset: 0x2DE66, size: 0x8, addend: 0x0, symName: __ZNKSt6vectorIhSaIhEE8max_sizeEv, symObjAddr: 0x962C, symBinAddr: 0x10000B774, symSize: 0x20 }
  - { offsetInCU: 0x2DE8D, offset: 0x2DE8D, size: 0x8, addend: 0x0, symName: __ZNSt6vectorIS_IhSaIhEESaIS1_EE17_M_realloc_insertIJS1_EEEvN9__gnu_cxx17__normal_iteratorIPS1_S3_EEDpOT_, symObjAddr: 0x9404, symBinAddr: 0x10000B54C, symSize: 0x1F0 }
  - { offsetInCU: 0x2DE95, offset: 0x2DE95, size: 0x8, addend: 0x0, symName: __ZNSt6vectorIS_IhSaIhEESaIS1_EE4backEv, symObjAddr: 0x95F4, symBinAddr: 0x10000B73C, symSize: 0x38 }
  - { offsetInCU: 0x2DFF6, offset: 0x2DFF6, size: 0x8, addend: 0x0, symName: __ZNSt6vectorIS_IhSaIhEESaIS1_EE3endEv, symObjAddr: 0x93DC, symBinAddr: 0x10000B524, symSize: 0x28 }
  - { offsetInCU: 0x2DFFE, offset: 0x2DFFE, size: 0x8, addend: 0x0, symName: __ZNSt6vectorIS_IhSaIhEESaIS1_EE17_M_realloc_insertIJS1_EEEvN9__gnu_cxx17__normal_iteratorIPS1_S3_EEDpOT_, symObjAddr: 0x9404, symBinAddr: 0x10000B54C, symSize: 0x1F0 }
  - { offsetInCU: 0x2E0EE, offset: 0x2E0EE, size: 0x8, addend: 0x0, symName: __ZSt7forwardISt6vectorIhSaIhEEEOT_RNSt16remove_referenceIS3_E4typeE, symObjAddr: 0x93C8, symBinAddr: 0x10000B510, symSize: 0x14 }
  - { offsetInCU: 0x2E0F6, offset: 0x2E0F6, size: 0x8, addend: 0x0, symName: __ZNSt6vectorIS_IhSaIhEESaIS1_EE3endEv, symObjAddr: 0x93DC, symBinAddr: 0x10000B524, symSize: 0x28 }
  - { offsetInCU: 0x2E191, offset: 0x2E191, size: 0x8, addend: 0x0, symName: __ZSt12__relocate_aIPSt6vectorIhSaIhEES3_SaIS2_EET0_T_S6_S5_RT1_, symObjAddr: 0x936C, symBinAddr: 0x10000B4B4, symSize: 0x5C }
  - { offsetInCU: 0x2E199, offset: 0x2E199, size: 0x8, addend: 0x0, symName: __ZSt7forwardISt6vectorIhSaIhEEEOT_RNSt16remove_referenceIS3_E4typeE, symObjAddr: 0x93C8, symBinAddr: 0x10000B510, symSize: 0x14 }
  - { offsetInCU: 0x2E179, offset: 0x2E179, size: 0x8, addend: 0x0, symName: __ZNSt6vectorIS_IhSaIhEESaIS1_EE11_S_max_sizeERKS2_, symObjAddr: 0x9310, symBinAddr: 0x10000B458, symSize: 0x5C }
  - { offsetInCU: 0x2E181, offset: 0x2E181, size: 0x8, addend: 0x0, symName: __ZSt12__relocate_aIPSt6vectorIhSaIhEES3_SaIS2_EET0_T_S6_S5_RT1_, symObjAddr: 0x936C, symBinAddr: 0x10000B4B4, symSize: 0x5C }
  - { offsetInCU: 0x2E24B, offset: 0x2E24B, size: 0x8, addend: 0x0, symName: __ZNSt27__uninitialized_default_n_1ILb1EE18__uninit_default_nIPhmEET_S3_T0_, symObjAddr: 0x92AC, symBinAddr: 0x10000B3F4, symSize: 0x64 }
  - { offsetInCU: 0x2E253, offset: 0x2E253, size: 0x8, addend: 0x0, symName: __ZNSt6vectorIS_IhSaIhEESaIS1_EE11_S_max_sizeERKS2_, symObjAddr: 0x9310, symBinAddr: 0x10000B458, symSize: 0x5C }
  - { offsetInCU: 0x2E2F6, offset: 0x2E2F6, size: 0x8, addend: 0x0, symName: __ZNSt10_Head_baseILm1ESt14default_deleteIA_cELb1EE7_M_headERS3_, symObjAddr: 0x9298, symBinAddr: 0x10000B3E0, symSize: 0x14 }
  - { offsetInCU: 0x2E2FE, offset: 0x2E2FE, size: 0x8, addend: 0x0, symName: __ZNSt27__uninitialized_default_n_1ILb1EE18__uninit_default_nIPhmEET_S3_T0_, symObjAddr: 0x92AC, symBinAddr: 0x10000B3F4, symSize: 0x64 }
  - { offsetInCU: 0x2E3D9, offset: 0x2E3D9, size: 0x8, addend: 0x0, symName: __ZSt10_ConstructISt4pairISt6vectorIfSaIfEEiEJRKS4_EEvPT_DpOT0_, symObjAddr: 0x921C, symBinAddr: 0x10000B364, symSize: 0x7C }
  - { offsetInCU: 0x2E3E1, offset: 0x2E3E1, size: 0x8, addend: 0x0, symName: __ZNSt10_Head_baseILm1ESt14default_deleteIA_cELb1EE7_M_headERS3_, symObjAddr: 0x9298, symBinAddr: 0x10000B3E0, symSize: 0x14 }
  - { offsetInCU: 0x2E38E, offset: 0x2E38E, size: 0x8, addend: 0x0, symName: __ZNK9__gnu_cxx17__normal_iteratorIPKSt4pairISt6vectorIfSaIfEEiES2_IS5_SaIS5_EEEdeEv, symObjAddr: 0x9204, symBinAddr: 0x10000B34C, symSize: 0x18 }
  - { offsetInCU: 0x2E396, offset: 0x2E396, size: 0x8, addend: 0x0, symName: __ZSt10_ConstructISt4pairISt6vectorIfSaIfEEiEJRKS4_EEvPT_DpOT0_, symObjAddr: 0x921C, symBinAddr: 0x10000B364, symSize: 0x7C }
  - { offsetInCU: 0x2E3BD, offset: 0x2E3BD, size: 0x8, addend: 0x0, symName: __ZN9__gnu_cxx17__normal_iteratorIPKSt4pairISt6vectorIfSaIfEEiES2_IS5_SaIS5_EEEppEv, symObjAddr: 0x91DC, symBinAddr: 0x10000B324, symSize: 0x28 }
  - { offsetInCU: 0x2E3C5, offset: 0x2E3C5, size: 0x8, addend: 0x0, symName: __ZNK9__gnu_cxx17__normal_iteratorIPKSt4pairISt6vectorIfSaIfEEiES2_IS5_SaIS5_EEEdeEv, symObjAddr: 0x9204, symBinAddr: 0x10000B34C, symSize: 0x18 }
  - { offsetInCU: 0x2E4BD, offset: 0x2E4BD, size: 0x8, addend: 0x0, symName: __ZN9__gnu_cxxneIPKSt4pairISt6vectorIfSaIfEEiES2_IS5_SaIS5_EEEEbRKNS_17__normal_iteratorIT_T0_EESF_, symObjAddr: 0x9198, symBinAddr: 0x10000B2E0, symSize: 0x44 }
  - { offsetInCU: 0x2E4C5, offset: 0x2E4C5, size: 0x8, addend: 0x0, symName: __ZN9__gnu_cxx17__normal_iteratorIPKSt4pairISt6vectorIfSaIfEEiES2_IS5_SaIS5_EEEppEv, symObjAddr: 0x91DC, symBinAddr: 0x10000B324, symSize: 0x28 }
  - { offsetInCU: 0x2E4BC, offset: 0x2E4BC, size: 0x8, addend: 0x0, symName: __ZSt14__copy_move_a2ILb0EPKiPiET1_T0_S4_S3_, symObjAddr: 0x916C, symBinAddr: 0x10000B2B4, symSize: 0x2C }
  - { offsetInCU: 0x2E4C4, offset: 0x2E4C4, size: 0x8, addend: 0x0, symName: __ZN9__gnu_cxxneIPKSt4pairISt6vectorIfSaIfEEiES2_IS5_SaIS5_EEEEbRKNS_17__normal_iteratorIT_T0_EESF_, symObjAddr: 0x9198, symBinAddr: 0x10000B2E0, symSize: 0x44 }
  - { offsetInCU: 0x2E4F7, offset: 0x2E4F7, size: 0x8, addend: 0x0, symName: __ZNSt23mersenne_twister_engineIjLm32ELm624ELm397ELm31ELj2567483615ELm11ELj4294967295ELm7ELj2636928640ELm15ELj4022730752ELm18ELj1812433253EE11_M_gen_randEv, symObjAddr: 0x8FAC, symBinAddr: 0x10000B0F4, symSize: 0x1C0 }
  - { offsetInCU: 0x2E4FF, offset: 0x2E4FF, size: 0x8, addend: 0x0, symName: __ZSt14__copy_move_a2ILb0EPKiPiET1_T0_S4_S3_, symObjAddr: 0x916C, symBinAddr: 0x10000B2B4, symSize: 0x2C }
  - { offsetInCU: 0x2E711, offset: 0x2E711, size: 0x8, addend: 0x0, symName: __ZSt19__relocate_object_aISt4pairISt6vectorIfSaIfEEiES4_SaIS4_EEvPT_PT0_RT1_, symObjAddr: 0x8EDC, symBinAddr: 0x10000B024, symSize: 0xD0 }
  - { offsetInCU: 0x2E719, offset: 0x2E719, size: 0x8, addend: 0x0, symName: __ZNSt23mersenne_twister_engineIjLm32ELm624ELm397ELm31ELj2567483615ELm11ELj4294967295ELm7ELj2636928640ELm15ELj4022730752ELm18ELj1812433253EE11_M_gen_randEv, symObjAddr: 0x8FAC, symBinAddr: 0x10000B0F4, symSize: 0x1C0 }
  - { offsetInCU: 0x2E89F, offset: 0x2E89F, size: 0x8, addend: 0x0, symName: __ZSt18uninitialized_copyIN9__gnu_cxx17__normal_iteratorIPKfSt6vectorIfSaIfEEEEPfET0_T_SA_S9_, symObjAddr: 0x8EA0, symBinAddr: 0x10000AFE8, symSize: 0x3C }
  - { offsetInCU: 0x2E8A7, offset: 0x2E8A7, size: 0x8, addend: 0x0, symName: __ZSt19__relocate_object_aISt4pairISt6vectorIfSaIfEEiES4_SaIS4_EEvPT_PT0_RT1_, symObjAddr: 0x8EDC, symBinAddr: 0x10000B024, symSize: 0xD0 }
  - { offsetInCU: 0x2E8F5, offset: 0x2E8F5, size: 0x8, addend: 0x0, symName: __ZN9__gnu_cxx17__normal_iteratorIPKfSt6vectorIfSaIfEEEC1ERKS2_, symObjAddr: 0x8E78, symBinAddr: 0x10000AFC0, symSize: 0x28 }
  - { offsetInCU: 0x2E8FD, offset: 0x2E8FD, size: 0x8, addend: 0x0, symName: __ZSt18uninitialized_copyIN9__gnu_cxx17__normal_iteratorIPKfSt6vectorIfSaIfEEEEPfET0_T_SA_S9_, symObjAddr: 0x8EA0, symBinAddr: 0x10000AFE8, symSize: 0x3C }
  - { offsetInCU: 0x2E8F3, offset: 0x2E8F3, size: 0x8, addend: 0x0, symName: __ZNSt12_Vector_baseIfSaIfEE17_M_create_storageEm, symObjAddr: 0x8E18, symBinAddr: 0x10000AF60, symSize: 0x60 }
  - { offsetInCU: 0x2E8FB, offset: 0x2E8FB, size: 0x8, addend: 0x0, symName: __ZN9__gnu_cxx17__normal_iteratorIPKfSt6vectorIfSaIfEEEC1ERKS2_, symObjAddr: 0x8E78, symBinAddr: 0x10000AFC0, symSize: 0x28 }
  - { offsetInCU: 0x2E9F4, offset: 0x2E9F4, size: 0x8, addend: 0x0, symName: __ZSt14__relocate_a_1IffENSt9enable_ifIXsrSt24__is_bitwise_relocatableIT_vE5valueEPS2_E4typeES4_S4_S4_RSaIT0_E, symObjAddr: 0x8DB0, symBinAddr: 0x10000AEF8, symSize: 0x68 }
  - { offsetInCU: 0x2E9FC, offset: 0x2E9FC, size: 0x8, addend: 0x0, symName: __ZNSt12_Vector_baseIfSaIfEE17_M_create_storageEm, symObjAddr: 0x8E18, symBinAddr: 0x10000AF60, symSize: 0x60 }
  - { offsetInCU: 0x2EA43, offset: 0x2EA43, size: 0x8, addend: 0x0, symName: __ZSt12__niter_baseIPfET_S1_, symObjAddr: 0x8D9C, symBinAddr: 0x10000AEE4, symSize: 0x14 }
  - { offsetInCU: 0x2EA4B, offset: 0x2EA4B, size: 0x8, addend: 0x0, symName: __ZSt14__relocate_a_1IffENSt9enable_ifIXsrSt24__is_bitwise_relocatableIT_vE5valueEPS2_E4typeES4_S4_S4_RSaIT0_E, symObjAddr: 0x8DB0, symBinAddr: 0x10000AEF8, symSize: 0x68 }
  - { offsetInCU: 0x2EA59, offset: 0x2EA59, size: 0x8, addend: 0x0, symName: __ZNSt15__new_allocatorIfE8allocateEmPKv, symObjAddr: 0x8D20, symBinAddr: 0x10000AE68, symSize: 0x7C }
  - { offsetInCU: 0x2EA61, offset: 0x2EA61, size: 0x8, addend: 0x0, symName: __ZSt12__niter_baseIPfET_S1_, symObjAddr: 0x8D9C, symBinAddr: 0x10000AEE4, symSize: 0x14 }
  - { offsetInCU: 0x2EAE5, offset: 0x2EAE5, size: 0x8, addend: 0x0, symName: __ZNSt6vectorIfSaIfEE11_S_max_sizeERKS0_, symObjAddr: 0x8CCC, symBinAddr: 0x10000AE14, symSize: 0x54 }
  - { offsetInCU: 0x2EAED, offset: 0x2EAED, size: 0x8, addend: 0x0, symName: __ZNSt15__new_allocatorIfE8allocateEmPKv, symObjAddr: 0x8D20, symBinAddr: 0x10000AE68, symSize: 0x7C }
  - { offsetInCU: 0x2EC8F, offset: 0x2EC8F, size: 0x8, addend: 0x0, symName: __ZSt13__copy_move_aILb0EN9__gnu_cxx17__normal_iteratorIPKhSt6vectorIhSaIhEEEEPhET1_T0_SA_S9_, symObjAddr: 0x8C6C, symBinAddr: 0x10000ADB4, symSize: 0x60 }
  - { offsetInCU: 0x2EC97, offset: 0x2EC97, size: 0x8, addend: 0x0, symName: __ZNSt6vectorIfSaIfEE11_S_max_sizeERKS0_, symObjAddr: 0x8CCC, symBinAddr: 0x10000AE14, symSize: 0x54 }
  - { offsetInCU: 0x2ECF9, offset: 0x2ECF9, size: 0x8, addend: 0x0, symName: __ZSt12__miter_baseIN9__gnu_cxx17__normal_iteratorIPKhSt6vectorIhSaIhEEEEET_S8_, symObjAddr: 0x8C58, symBinAddr: 0x10000ADA0, symSize: 0x14 }
  - { offsetInCU: 0x2ED01, offset: 0x2ED01, size: 0x8, addend: 0x0, symName: __ZSt13__copy_move_aILb0EN9__gnu_cxx17__normal_iteratorIPKhSt6vectorIhSaIhEEEEPhET1_T0_SA_S9_, symObjAddr: 0x8C6C, symBinAddr: 0x10000ADB4, symSize: 0x60 }
  - { offsetInCU: 0x2EC92, offset: 0x2EC92, size: 0x8, addend: 0x0, symName: __ZNSt15__new_allocatorIhE8allocateEmPKv, symObjAddr: 0x8BF4, symBinAddr: 0x10000AD3C, symSize: 0x64 }
  - { offsetInCU: 0x2EC9A, offset: 0x2EC9A, size: 0x8, addend: 0x0, symName: __ZSt12__miter_baseIN9__gnu_cxx17__normal_iteratorIPKhSt6vectorIhSaIhEEEEET_S8_, symObjAddr: 0x8C58, symBinAddr: 0x10000ADA0, symSize: 0x14 }
  - { offsetInCU: 0x2EDBD, offset: 0x2EDBD, size: 0x8, addend: 0x0, symName: __ZSt10_ConstructISt6vectorIhSaIhEEJRKS2_EEvPT_DpOT0_, symObjAddr: 0x8B78, symBinAddr: 0x10000ACC0, symSize: 0x7C }
  - { offsetInCU: 0x2EDC5, offset: 0x2EDC5, size: 0x8, addend: 0x0, symName: __ZNSt15__new_allocatorIhE8allocateEmPKv, symObjAddr: 0x8BF4, symBinAddr: 0x10000AD3C, symSize: 0x64 }
  - { offsetInCU: 0x2ED84, offset: 0x2ED84, size: 0x8, addend: 0x0, symName: __ZNK9__gnu_cxx17__normal_iteratorIPKSt6vectorIhSaIhEES1_IS3_SaIS3_EEEdeEv, symObjAddr: 0x8B60, symBinAddr: 0x10000ACA8, symSize: 0x18 }
  - { offsetInCU: 0x2ED8C, offset: 0x2ED8C, size: 0x8, addend: 0x0, symName: __ZSt10_ConstructISt6vectorIhSaIhEEJRKS2_EEvPT_DpOT0_, symObjAddr: 0x8B78, symBinAddr: 0x10000ACC0, symSize: 0x7C }
  - { offsetInCU: 0x2EDB3, offset: 0x2EDB3, size: 0x8, addend: 0x0, symName: __ZN9__gnu_cxx17__normal_iteratorIPKSt6vectorIhSaIhEES1_IS3_SaIS3_EEEppEv, symObjAddr: 0x8B38, symBinAddr: 0x10000AC80, symSize: 0x28 }
  - { offsetInCU: 0x2EDBB, offset: 0x2EDBB, size: 0x8, addend: 0x0, symName: __ZNK9__gnu_cxx17__normal_iteratorIPKSt6vectorIhSaIhEES1_IS3_SaIS3_EEEdeEv, symObjAddr: 0x8B60, symBinAddr: 0x10000ACA8, symSize: 0x18 }
  - { offsetInCU: 0x2EE99, offset: 0x2EE99, size: 0x8, addend: 0x0, symName: __ZN9__gnu_cxxneIPKSt6vectorIhSaIhEES1_IS3_SaIS3_EEEEbRKNS_17__normal_iteratorIT_T0_EESD_, symObjAddr: 0x8AF4, symBinAddr: 0x10000AC3C, symSize: 0x44 }
  - { offsetInCU: 0x2EEA1, offset: 0x2EEA1, size: 0x8, addend: 0x0, symName: __ZN9__gnu_cxx17__normal_iteratorIPKSt6vectorIhSaIhEES1_IS3_SaIS3_EEEppEv, symObjAddr: 0x8B38, symBinAddr: 0x10000AC80, symSize: 0x28 }
  - { offsetInCU: 0x2EE59, offset: 0x2EE59, size: 0x8, addend: 0x0, symName: __ZNSt15__new_allocatorISt6vectorIhSaIhEEE8allocateEmPKv, symObjAddr: 0x8A64, symBinAddr: 0x10000ABAC, symSize: 0x90 }
  - { offsetInCU: 0x2EE61, offset: 0x2EE61, size: 0x8, addend: 0x0, symName: __ZN9__gnu_cxxneIPKSt6vectorIhSaIhEES1_IS3_SaIS3_EEEEbRKNS_17__normal_iteratorIT_T0_EESD_, symObjAddr: 0x8AF4, symBinAddr: 0x10000AC3C, symSize: 0x44 }
  - { offsetInCU: 0x2EF44, offset: 0x2EF44, size: 0x8, addend: 0x0, symName: __ZSt4moveIRSaIhEEONSt16remove_referenceIT_E4typeEOS3_, symObjAddr: 0x8A50, symBinAddr: 0x10000AB98, symSize: 0x14 }
  - { offsetInCU: 0x2EF4C, offset: 0x2EF4C, size: 0x8, addend: 0x0, symName: __ZNSt15__new_allocatorISt6vectorIhSaIhEEE8allocateEmPKv, symObjAddr: 0x8A64, symBinAddr: 0x10000ABAC, symSize: 0x90 }
  - { offsetInCU: 0x2EF3B, offset: 0x2EF3B, size: 0x8, addend: 0x0, symName: __ZNSt12_Vector_baseIhSaIhEE17_Vector_impl_data12_M_copy_dataERKS2_, symObjAddr: 0x8A08, symBinAddr: 0x10000AB50, symSize: 0x48 }
  - { offsetInCU: 0x2EF43, offset: 0x2EF43, size: 0x8, addend: 0x0, symName: __ZSt4moveIRSaIhEEONSt16remove_referenceIT_E4typeEOS3_, symObjAddr: 0x8A50, symBinAddr: 0x10000AB98, symSize: 0x14 }
  - { offsetInCU: 0x2EFCF, offset: 0x2EFCF, size: 0x8, addend: 0x0, symName: __ZNSt12_Vector_baseIhSaIhEEC2ERKS0_, symObjAddr: 0x89E0, symBinAddr: 0x10000AB28, symSize: 0x28 }
  - { offsetInCU: 0x2EFD7, offset: 0x2EFD7, size: 0x8, addend: 0x0, symName: __ZNSt12_Vector_baseIhSaIhEE17_Vector_impl_data12_M_copy_dataERKS2_, symObjAddr: 0x8A08, symBinAddr: 0x10000AB50, symSize: 0x48 }
  - { offsetInCU: 0x2EFE8, offset: 0x2EFE8, size: 0x8, addend: 0x0, symName: __ZNSt6vectorIhSaIhEE15_M_erase_at_endEPh, symObjAddr: 0x895C, symBinAddr: 0x10000AAA4, symSize: 0x84 }
  - { offsetInCU: 0x2EFF0, offset: 0x2EFF0, size: 0x8, addend: 0x0, symName: __ZNSt12_Vector_baseIhSaIhEEC2ERKS0_, symObjAddr: 0x89E0, symBinAddr: 0x10000AB28, symSize: 0x28 }
  - { offsetInCU: 0x2F093, offset: 0x2F093, size: 0x8, addend: 0x0, symName: __ZNSt6vectorIhSaIhEE17_M_default_appendEm, symObjAddr: 0x8770, symBinAddr: 0x10000A8B8, symSize: 0x1EC }
  - { offsetInCU: 0x2F09B, offset: 0x2F09B, size: 0x8, addend: 0x0, symName: __ZNSt6vectorIhSaIhEE15_M_erase_at_endEPh, symObjAddr: 0x895C, symBinAddr: 0x10000AAA4, symSize: 0x84 }
  - { offsetInCU: 0x2F1EF, offset: 0x2F1EF, size: 0x8, addend: 0x0, symName: __ZSt4moveIRSaISt6vectorIhSaIhEEEEONSt16remove_referenceIT_E4typeEOS6_, symObjAddr: 0x875C, symBinAddr: 0x10000A8A4, symSize: 0x14 }
  - { offsetInCU: 0x2F1F7, offset: 0x2F1F7, size: 0x8, addend: 0x0, symName: __ZNSt6vectorIhSaIhEE17_M_default_appendEm, symObjAddr: 0x8770, symBinAddr: 0x10000A8B8, symSize: 0x1EC }
  - { offsetInCU: 0x2F1C8, offset: 0x2F1C8, size: 0x8, addend: 0x0, symName: __ZNSt12_Vector_baseISt6vectorIhSaIhEESaIS2_EE17_Vector_impl_data12_M_copy_dataERKS5_, symObjAddr: 0x8714, symBinAddr: 0x10000A85C, symSize: 0x48 }
  - { offsetInCU: 0x2F1D0, offset: 0x2F1D0, size: 0x8, addend: 0x0, symName: __ZSt4moveIRSaISt6vectorIhSaIhEEEEONSt16remove_referenceIT_E4typeEOS6_, symObjAddr: 0x875C, symBinAddr: 0x10000A8A4, symSize: 0x14 }
  - { offsetInCU: 0x2F26E, offset: 0x2F26E, size: 0x8, addend: 0x0, symName: __ZNSt12_Vector_baseISt6vectorIhSaIhEESaIS2_EEC2ERKS3_, symObjAddr: 0x86EC, symBinAddr: 0x10000A834, symSize: 0x28 }
  - { offsetInCU: 0x2F276, offset: 0x2F276, size: 0x8, addend: 0x0, symName: __ZNSt12_Vector_baseISt6vectorIhSaIhEESaIS2_EE17_Vector_impl_data12_M_copy_dataERKS5_, symObjAddr: 0x8714, symBinAddr: 0x10000A85C, symSize: 0x48 }
  - { offsetInCU: 0x2F275, offset: 0x2F275, size: 0x8, addend: 0x0, symName: __ZNSt6vectorIS_IhSaIhEESaIS1_EE12emplace_backIJS1_EEERS1_DpOT_, symObjAddr: 0x8600, symBinAddr: 0x10000A748, symSize: 0xEC }
  - { offsetInCU: 0x2F27D, offset: 0x2F27D, size: 0x8, addend: 0x0, symName: __ZNSt12_Vector_baseISt6vectorIhSaIhEESaIS2_EEC2ERKS3_, symObjAddr: 0x86EC, symBinAddr: 0x10000A834, symSize: 0x28 }
  - { offsetInCU: 0x2F34A, offset: 0x2F34A, size: 0x8, addend: 0x0, symName: __ZNSt6vectorIS_IhSaIhEESaIS1_EE11_S_relocateEPS1_S4_S4_RS2_, symObjAddr: 0x85CC, symBinAddr: 0x10000A714, symSize: 0x34 }
  - { offsetInCU: 0x2F352, offset: 0x2F352, size: 0x8, addend: 0x0, symName: __ZNSt6vectorIS_IhSaIhEESaIS1_EE12emplace_backIJS1_EEERS1_DpOT_, symObjAddr: 0x8600, symBinAddr: 0x10000A748, symSize: 0xEC }
  - { offsetInCU: 0x2F3B8, offset: 0x2F3B8, size: 0x8, addend: 0x0, symName: __ZNKSt6vectorIS_IhSaIhEESaIS1_EE8capacityEv, symObjAddr: 0x8598, symBinAddr: 0x10000A6E0, symSize: 0x34 }
  - { offsetInCU: 0x2F3C0, offset: 0x2F3C0, size: 0x8, addend: 0x0, symName: __ZNSt6vectorIS_IhSaIhEESaIS1_EE11_S_relocateEPS1_S4_S4_RS2_, symObjAddr: 0x85CC, symBinAddr: 0x10000A714, symSize: 0x34 }
  - { offsetInCU: 0x2F3E7, offset: 0x2F3E7, size: 0x8, addend: 0x0, symName: __ZNKSt6vectorIS_IhSaIhEESaIS1_EE8max_sizeEv, symObjAddr: 0x8578, symBinAddr: 0x10000A6C0, symSize: 0x20 }
  - { offsetInCU: 0x2F3EF, offset: 0x2F3EF, size: 0x8, addend: 0x0, symName: __ZNKSt6vectorIS_IhSaIhEESaIS1_EE8capacityEv, symObjAddr: 0x8598, symBinAddr: 0x10000A6E0, symSize: 0x34 }
  - { offsetInCU: 0x2F485, offset: 0x2F485, size: 0x8, addend: 0x0, symName: __ZSt25__uninitialized_default_nIPhmET_S1_T0_, symObjAddr: 0x854C, symBinAddr: 0x10000A694, symSize: 0x2C }
  - { offsetInCU: 0x2F48D, offset: 0x2F48D, size: 0x8, addend: 0x0, symName: __ZNKSt6vectorIS_IhSaIhEESaIS1_EE8max_sizeEv, symObjAddr: 0x8578, symBinAddr: 0x10000A6C0, symSize: 0x20 }
  - { offsetInCU: 0x2F4B5, offset: 0x2F4B5, size: 0x8, addend: 0x0, symName: __ZNSt11_Tuple_implILm1EJSt14default_deleteIA_cEEE7_M_headERS3_, symObjAddr: 0x8530, symBinAddr: 0x10000A678, symSize: 0x1C }
  - { offsetInCU: 0x2F4BD, offset: 0x2F4BD, size: 0x8, addend: 0x0, symName: __ZSt25__uninitialized_default_nIPhmET_S1_T0_, symObjAddr: 0x854C, symBinAddr: 0x10000A694, symSize: 0x2C }
  - { offsetInCU: 0x2F4E7, offset: 0x2F4E7, size: 0x8, addend: 0x0, symName: __ZNSt10_Head_baseILm0EPcLb0EE7_M_headERS1_, symObjAddr: 0x851C, symBinAddr: 0x10000A664, symSize: 0x14 }
  - { offsetInCU: 0x2F4EF, offset: 0x2F4EF, size: 0x8, addend: 0x0, symName: __ZNSt11_Tuple_implILm1EJSt14default_deleteIA_cEEE7_M_headERS3_, symObjAddr: 0x8530, symBinAddr: 0x10000A678, symSize: 0x1C }
  - { offsetInCU: 0x2F519, offset: 0x2F519, size: 0x8, addend: 0x0, symName: __ZNSt10_Head_baseILm0EPcLb0EE7_M_headERKS1_, symObjAddr: 0x8508, symBinAddr: 0x10000A650, symSize: 0x14 }
  - { offsetInCU: 0x2F521, offset: 0x2F521, size: 0x8, addend: 0x0, symName: __ZNSt10_Head_baseILm0EPcLb0EE7_M_headERS1_, symObjAddr: 0x851C, symBinAddr: 0x10000A664, symSize: 0x14 }
  - { offsetInCU: 0x2F676, offset: 0x2F676, size: 0x8, addend: 0x0, symName: __ZSt16__do_uninit_copyIN9__gnu_cxx17__normal_iteratorIPKSt4pairISt6vectorIfSaIfEEiES3_IS6_SaIS6_EEEEPS6_ET0_T_SE_SD_, symObjAddr: 0x845C, symBinAddr: 0x10000A5A4, symSize: 0xAC }
  - { offsetInCU: 0x2F67E, offset: 0x2F67E, size: 0x8, addend: 0x0, symName: __ZNSt10_Head_baseILm0EPcLb0EE7_M_headERKS1_, symObjAddr: 0x8508, symBinAddr: 0x10000A650, symSize: 0x14 }
  - { offsetInCU: 0x2F618, offset: 0x2F618, size: 0x8, addend: 0x0, symName: __ZSt12__niter_wrapIPiET_RKS1_S1_, symObjAddr: 0x8444, symBinAddr: 0x10000A58C, symSize: 0x18 }
  - { offsetInCU: 0x2F620, offset: 0x2F620, size: 0x8, addend: 0x0, symName: __ZSt16__do_uninit_copyIN9__gnu_cxx17__normal_iteratorIPKSt4pairISt6vectorIfSaIfEEiES3_IS6_SaIS6_EEEEPS6_ET0_T_SE_SD_, symObjAddr: 0x845C, symBinAddr: 0x10000A5A4, symSize: 0xAC }
  - { offsetInCU: 0x2F691, offset: 0x2F691, size: 0x8, addend: 0x0, symName: __ZSt14__copy_move_a1ILb0EPKiPiET1_T0_S4_S3_, symObjAddr: 0x8418, symBinAddr: 0x10000A560, symSize: 0x2C }
  - { offsetInCU: 0x2F699, offset: 0x2F699, size: 0x8, addend: 0x0, symName: __ZSt12__niter_wrapIPiET_RKS1_S1_, symObjAddr: 0x8444, symBinAddr: 0x10000A58C, symSize: 0x18 }
  - { offsetInCU: 0x2F6FB, offset: 0x2F6FB, size: 0x8, addend: 0x0, symName: __ZSt12__niter_baseIPiET_S1_, symObjAddr: 0x8404, symBinAddr: 0x10000A54C, symSize: 0x14 }
  - { offsetInCU: 0x2F703, offset: 0x2F703, size: 0x8, addend: 0x0, symName: __ZSt14__copy_move_a1ILb0EPKiPiET1_T0_S4_S3_, symObjAddr: 0x8418, symBinAddr: 0x10000A560, symSize: 0x2C }
  - { offsetInCU: 0x2F74E, offset: 0x2F74E, size: 0x8, addend: 0x0, symName: __ZSt12__niter_baseIPKiET_S2_, symObjAddr: 0x83F0, symBinAddr: 0x10000A538, symSize: 0x14 }
  - { offsetInCU: 0x2F756, offset: 0x2F756, size: 0x8, addend: 0x0, symName: __ZSt12__niter_baseIPiET_S1_, symObjAddr: 0x8404, symBinAddr: 0x10000A54C, symSize: 0x14 }
  - { offsetInCU: 0x2F764, offset: 0x2F764, size: 0x8, addend: 0x0, symName: __ZNSt23mersenne_twister_engineIjLm32ELm624ELm397ELm31ELj2567483615ELm11ELj4294967295ELm7ELj2636928640ELm15ELj4022730752ELm18ELj1812433253EEclEv, symObjAddr: 0x833C, symBinAddr: 0x10000A484, symSize: 0xB4 }
  - { offsetInCU: 0x2F76C, offset: 0x2F76C, size: 0x8, addend: 0x0, symName: __ZSt12__niter_baseIPKiET_S2_, symObjAddr: 0x83F0, symBinAddr: 0x10000A538, symSize: 0x14 }
  - { offsetInCU: 0x2F7A7, offset: 0x2F7A7, size: 0x8, addend: 0x0, symName: __ZNSt20__uninitialized_copyILb1EE13__uninit_copyIPKiPiEET0_T_S6_S5_, symObjAddr: 0x8310, symBinAddr: 0x10000A458, symSize: 0x2C }
  - { offsetInCU: 0x2F7AF, offset: 0x2F7AF, size: 0x8, addend: 0x0, symName: __ZNSt23mersenne_twister_engineIjLm32ELm624ELm397ELm31ELj2567483615ELm11ELj4294967295ELm7ELj2636928640ELm15ELj4022730752ELm18ELj1812433253EEclEv, symObjAddr: 0x833C, symBinAddr: 0x10000A484, symSize: 0xB4 }
  - { offsetInCU: 0x2F81B, offset: 0x2F81B, size: 0x8, addend: 0x0, symName: __ZNSt15__new_allocatorIiE8allocateEmPKv, symObjAddr: 0x8294, symBinAddr: 0x10000A3DC, symSize: 0x7C }
  - { offsetInCU: 0x2F823, offset: 0x2F823, size: 0x8, addend: 0x0, symName: __ZNSt20__uninitialized_copyILb1EE13__uninit_copyIPKiPiEET0_T_S6_S5_, symObjAddr: 0x8310, symBinAddr: 0x10000A458, symSize: 0x2C }
  - { offsetInCU: 0x2F9C9, offset: 0x2F9C9, size: 0x8, addend: 0x0, symName: __ZSt14__relocate_a_1IPSt4pairISt6vectorIfSaIfEEiES5_SaIS4_EET0_T_S8_S7_RT1_, symObjAddr: 0x8210, symBinAddr: 0x10000A358, symSize: 0x84 }
  - { offsetInCU: 0x2F9D1, offset: 0x2F9D1, size: 0x8, addend: 0x0, symName: __ZNSt15__new_allocatorIiE8allocateEmPKv, symObjAddr: 0x8294, symBinAddr: 0x10000A3DC, symSize: 0x7C }
  - { offsetInCU: 0x2FA0C, offset: 0x2FA0C, size: 0x8, addend: 0x0, symName: __ZSt12__niter_baseIPSt4pairISt6vectorIfSaIfEEiEET_S6_, symObjAddr: 0x81FC, symBinAddr: 0x10000A344, symSize: 0x14 }
  - { offsetInCU: 0x2FA14, offset: 0x2FA14, size: 0x8, addend: 0x0, symName: __ZSt14__relocate_a_1IPSt4pairISt6vectorIfSaIfEEiES5_SaIS4_EET0_T_S8_S7_RT1_, symObjAddr: 0x8210, symBinAddr: 0x10000A358, symSize: 0x84 }
  - { offsetInCU: 0x2F9EB, offset: 0x2F9EB, size: 0x8, addend: 0x0, symName: __ZNSt15__new_allocatorISt4pairISt6vectorIfSaIfEEiEE8allocateEmPKv, symObjAddr: 0x8180, symBinAddr: 0x10000A2C8, symSize: 0x7C }
  - { offsetInCU: 0x2F9F3, offset: 0x2F9F3, size: 0x8, addend: 0x0, symName: __ZSt12__niter_baseIPSt4pairISt6vectorIfSaIfEEiEET_S6_, symObjAddr: 0x81FC, symBinAddr: 0x10000A344, symSize: 0x14 }
  - { offsetInCU: 0x2FA77, offset: 0x2FA77, size: 0x8, addend: 0x0, symName: __ZNSt6vectorISt4pairIS_IfSaIfEEiESaIS3_EE11_S_max_sizeERKS4_, symObjAddr: 0x812C, symBinAddr: 0x10000A274, symSize: 0x54 }
  - { offsetInCU: 0x2FA7F, offset: 0x2FA7F, size: 0x8, addend: 0x0, symName: __ZNSt15__new_allocatorISt4pairISt6vectorIfSaIfEEiEE8allocateEmPKv, symObjAddr: 0x8180, symBinAddr: 0x10000A2C8, symSize: 0x7C }
  - { offsetInCU: 0x2FC1F, offset: 0x2FC1F, size: 0x8, addend: 0x0, symName: __ZSt22__uninitialized_copy_aIN9__gnu_cxx17__normal_iteratorIPKfSt6vectorIfSaIfEEEEPffET0_T_SA_S9_RSaIT1_E, symObjAddr: 0x80FC, symBinAddr: 0x10000A244, symSize: 0x30 }
  - { offsetInCU: 0x2FC27, offset: 0x2FC27, size: 0x8, addend: 0x0, symName: __ZNSt6vectorISt4pairIS_IfSaIfEEiESaIS3_EE11_S_max_sizeERKS4_, symObjAddr: 0x812C, symBinAddr: 0x10000A274, symSize: 0x54 }
  - { offsetInCU: 0x2FBE4, offset: 0x2FBE4, size: 0x8, addend: 0x0, symName: __ZNKSt6vectorIfSaIfEE3endEv, symObjAddr: 0x80D4, symBinAddr: 0x10000A21C, symSize: 0x28 }
  - { offsetInCU: 0x2FBEC, offset: 0x2FBEC, size: 0x8, addend: 0x0, symName: __ZSt22__uninitialized_copy_aIN9__gnu_cxx17__normal_iteratorIPKfSt6vectorIfSaIfEEEEPffET0_T_SA_S9_RSaIT1_E, symObjAddr: 0x80FC, symBinAddr: 0x10000A244, symSize: 0x30 }
  - { offsetInCU: 0x2FC13, offset: 0x2FC13, size: 0x8, addend: 0x0, symName: __ZNKSt6vectorIfSaIfEE5beginEv, symObjAddr: 0x80B0, symBinAddr: 0x10000A1F8, symSize: 0x24 }
  - { offsetInCU: 0x2FC1B, offset: 0x2FC1B, size: 0x8, addend: 0x0, symName: __ZNKSt6vectorIfSaIfEE3endEv, symObjAddr: 0x80D4, symBinAddr: 0x10000A21C, symSize: 0x28 }
  - { offsetInCU: 0x2FCA6, offset: 0x2FCA6, size: 0x8, addend: 0x0, symName: __ZNSt12_Vector_baseIfSaIfEEC2EmRKS0_, symObjAddr: 0x805C, symBinAddr: 0x10000A1A4, symSize: 0x54 }
  - { offsetInCU: 0x2FCAE, offset: 0x2FCAE, size: 0x8, addend: 0x0, symName: __ZNKSt6vectorIfSaIfEE5beginEv, symObjAddr: 0x80B0, symBinAddr: 0x10000A1F8, symSize: 0x24 }
  - { offsetInCU: 0x2FD46, offset: 0x2FD46, size: 0x8, addend: 0x0, symName: __ZNSt12_Vector_baseIfSaIfEE12_Vector_implC1ERKS0_, symObjAddr: 0x8010, symBinAddr: 0x10000A158, symSize: 0x4C }
  - { offsetInCU: 0x2FD4E, offset: 0x2FD4E, size: 0x8, addend: 0x0, symName: __ZNSt12_Vector_baseIfSaIfEEC2EmRKS0_, symObjAddr: 0x805C, symBinAddr: 0x10000A1A4, symSize: 0x54 }
  - { offsetInCU: 0x2FE23, offset: 0x2FE23, size: 0x8, addend: 0x0, symName: __ZSt12__relocate_aIPfS0_SaIfEET0_T_S3_S2_RT1_, symObjAddr: 0x7FB4, symBinAddr: 0x10000A0FC, symSize: 0x5C }
  - { offsetInCU: 0x2FE2B, offset: 0x2FE2B, size: 0x8, addend: 0x0, symName: __ZNSt12_Vector_baseIfSaIfEE12_Vector_implC1ERKS0_, symObjAddr: 0x8010, symBinAddr: 0x10000A158, symSize: 0x4C }
  - { offsetInCU: 0x2FE8D, offset: 0x2FE8D, size: 0x8, addend: 0x0, symName: __ZNKSt6vectorIfSaIfEE4sizeEv, symObjAddr: 0x7F8C, symBinAddr: 0x10000A0D4, symSize: 0x28 }
  - { offsetInCU: 0x2FE95, offset: 0x2FE95, size: 0x8, addend: 0x0, symName: __ZSt12__relocate_aIPfS0_SaIfEET0_T_S3_S2_RT1_, symObjAddr: 0x7FB4, symBinAddr: 0x10000A0FC, symSize: 0x5C }
  - { offsetInCU: 0x2FEBC, offset: 0x2FEBC, size: 0x8, addend: 0x0, symName: __ZNKSt6vectorIfSaIfEE8max_sizeEv, symObjAddr: 0x7F6C, symBinAddr: 0x10000A0B4, symSize: 0x20 }
  - { offsetInCU: 0x2FEC4, offset: 0x2FEC4, size: 0x8, addend: 0x0, symName: __ZNKSt6vectorIfSaIfEE4sizeEv, symObjAddr: 0x7F8C, symBinAddr: 0x10000A0D4, symSize: 0x28 }
  - { offsetInCU: 0x2FF48, offset: 0x2FF48, size: 0x8, addend: 0x0, symName: __ZSt8_DestroyISt4pairISt6vectorIfSaIfEEiEEvPT_, symObjAddr: 0x7F4C, symBinAddr: 0x10000A094, symSize: 0x20 }
  - { offsetInCU: 0x2FF50, offset: 0x2FF50, size: 0x8, addend: 0x0, symName: __ZNKSt6vectorIfSaIfEE8max_sizeEv, symObjAddr: 0x7F6C, symBinAddr: 0x10000A0B4, symSize: 0x20 }
  - { offsetInCU: 0x2FF9A, offset: 0x2FF9A, size: 0x8, addend: 0x0, symName: __ZSt11__addressofISt4pairISt6vectorIfSaIfEEiEEPT_RS5_, symObjAddr: 0x7F38, symBinAddr: 0x10000A080, symSize: 0x14 }
  - { offsetInCU: 0x2FFA2, offset: 0x2FFA2, size: 0x8, addend: 0x0, symName: __ZSt8_DestroyISt4pairISt6vectorIfSaIfEEiEEvPT_, symObjAddr: 0x7F4C, symBinAddr: 0x10000A094, symSize: 0x20 }
  - { offsetInCU: 0x30034, offset: 0x30034, size: 0x8, addend: 0x0, symName: __ZSt4copyIN9__gnu_cxx17__normal_iteratorIPKhSt6vectorIhSaIhEEEEPhET0_T_SA_S9_, symObjAddr: 0x7EF0, symBinAddr: 0x10000A038, symSize: 0x48 }
  - { offsetInCU: 0x3003C, offset: 0x3003C, size: 0x8, addend: 0x0, symName: __ZSt11__addressofISt4pairISt6vectorIfSaIfEEiEEPT_RS5_, symObjAddr: 0x7F38, symBinAddr: 0x10000A080, symSize: 0x14 }
  - { offsetInCU: 0x30135, offset: 0x30135, size: 0x8, addend: 0x0, symName: __ZSt16__do_uninit_copyIN9__gnu_cxx17__normal_iteratorIPKSt6vectorIhSaIhEES2_IS4_SaIS4_EEEEPS4_ET0_T_SC_SB_, symObjAddr: 0x7E44, symBinAddr: 0x100009F8C, symSize: 0xAC }
  - { offsetInCU: 0x3013D, offset: 0x3013D, size: 0x8, addend: 0x0, symName: __ZSt4copyIN9__gnu_cxx17__normal_iteratorIPKhSt6vectorIhSaIhEEEEPhET0_T_SA_S9_, symObjAddr: 0x7EF0, symBinAddr: 0x10000A038, symSize: 0x48 }
  - { offsetInCU: 0x300F0, offset: 0x300F0, size: 0x8, addend: 0x0, symName: __ZNSt15__new_allocatorIhE10deallocateEPhm, symObjAddr: 0x7E1C, symBinAddr: 0x100009F64, symSize: 0x28 }
  - { offsetInCU: 0x300F8, offset: 0x300F8, size: 0x8, addend: 0x0, symName: __ZSt16__do_uninit_copyIN9__gnu_cxx17__normal_iteratorIPKSt6vectorIhSaIhEES2_IS4_SaIS4_EEEEPS4_ET0_T_SC_SB_, symObjAddr: 0x7E44, symBinAddr: 0x100009F8C, symSize: 0xAC }
  - { offsetInCU: 0x30192, offset: 0x30192, size: 0x8, addend: 0x0, symName: __ZSt8_DestroyISt6vectorIhSaIhEEEvPT_, symObjAddr: 0x7DFC, symBinAddr: 0x100009F44, symSize: 0x20 }
  - { offsetInCU: 0x3019A, offset: 0x3019A, size: 0x8, addend: 0x0, symName: __ZNSt15__new_allocatorIhE10deallocateEPhm, symObjAddr: 0x7E1C, symBinAddr: 0x100009F64, symSize: 0x28 }
  - { offsetInCU: 0x301E4, offset: 0x301E4, size: 0x8, addend: 0x0, symName: __ZSt11__addressofISt6vectorIhSaIhEEEPT_RS3_, symObjAddr: 0x7DE8, symBinAddr: 0x100009F30, symSize: 0x14 }
  - { offsetInCU: 0x301EC, offset: 0x301EC, size: 0x8, addend: 0x0, symName: __ZSt8_DestroyISt6vectorIhSaIhEEEvPT_, symObjAddr: 0x7DFC, symBinAddr: 0x100009F44, symSize: 0x20 }
  - { offsetInCU: 0x301D7, offset: 0x301D7, size: 0x8, addend: 0x0, symName: __ZNSt15__new_allocatorISt6vectorIhSaIhEEE10deallocateEPS2_m, symObjAddr: 0x7DAC, symBinAddr: 0x100009EF4, symSize: 0x3C }
  - { offsetInCU: 0x301DF, offset: 0x301DF, size: 0x8, addend: 0x0, symName: __ZSt11__addressofISt6vectorIhSaIhEEEPT_RS3_, symObjAddr: 0x7DE8, symBinAddr: 0x100009F30, symSize: 0x14 }
  - { offsetInCU: 0x302B8, offset: 0x302B8, size: 0x8, addend: 0x0, symName: __ZNSt12_Vector_baseIhSaIhEE17_Vector_impl_data12_M_swap_dataERS2_, symObjAddr: 0x7D60, symBinAddr: 0x100009EA8, symSize: 0x4C }
  - { offsetInCU: 0x302C0, offset: 0x302C0, size: 0x8, addend: 0x0, symName: __ZNSt15__new_allocatorISt6vectorIhSaIhEEE10deallocateEPS2_m, symObjAddr: 0x7DAC, symBinAddr: 0x100009EF4, symSize: 0x3C }
  - { offsetInCU: 0x30358, offset: 0x30358, size: 0x8, addend: 0x0, symName: __ZNSt6vectorIhSaIhEEC1ERKS0_, symObjAddr: 0x7D38, symBinAddr: 0x100009E80, symSize: 0x28 }
  - { offsetInCU: 0x30360, offset: 0x30360, size: 0x8, addend: 0x0, symName: __ZNSt12_Vector_baseIhSaIhEE17_Vector_impl_data12_M_swap_dataERS2_, symObjAddr: 0x7D60, symBinAddr: 0x100009EA8, symSize: 0x4C }
  - { offsetInCU: 0x30378, offset: 0x30378, size: 0x8, addend: 0x0, symName: __ZNKSt12_Vector_baseIhSaIhEE13get_allocatorEv, symObjAddr: 0x7CE8, symBinAddr: 0x100009E30, symSize: 0x50 }
  - { offsetInCU: 0x30380, offset: 0x30380, size: 0x8, addend: 0x0, symName: __ZNSt6vectorIhSaIhEEC1ERKS0_, symObjAddr: 0x7D38, symBinAddr: 0x100009E80, symSize: 0x28 }
  - { offsetInCU: 0x30411, offset: 0x30411, size: 0x8, addend: 0x0, symName: __ZNSt6vectorIhSaIhEE6resizeEm, symObjAddr: 0x7C3C, symBinAddr: 0x100009D84, symSize: 0xAC }
  - { offsetInCU: 0x30419, offset: 0x30419, size: 0x8, addend: 0x0, symName: __ZNKSt12_Vector_baseIhSaIhEE13get_allocatorEv, symObjAddr: 0x7CE8, symBinAddr: 0x100009E30, symSize: 0x50 }
  - { offsetInCU: 0x30496, offset: 0x30496, size: 0x8, addend: 0x0, symName: __ZNSt12_Vector_baseISt6vectorIhSaIhEESaIS2_EE17_Vector_impl_data12_M_swap_dataERS5_, symObjAddr: 0x7BF0, symBinAddr: 0x100009D38, symSize: 0x4C }
  - { offsetInCU: 0x3049E, offset: 0x3049E, size: 0x8, addend: 0x0, symName: __ZNSt6vectorIhSaIhEE6resizeEm, symObjAddr: 0x7C3C, symBinAddr: 0x100009D84, symSize: 0xAC }
  - { offsetInCU: 0x30541, offset: 0x30541, size: 0x8, addend: 0x0, symName: __ZNSt6vectorIS_IhSaIhEESaIS1_EEC1ERKS2_, symObjAddr: 0x7BC8, symBinAddr: 0x100009D10, symSize: 0x28 }
  - { offsetInCU: 0x30549, offset: 0x30549, size: 0x8, addend: 0x0, symName: __ZNSt12_Vector_baseISt6vectorIhSaIhEESaIS2_EE17_Vector_impl_data12_M_swap_dataERS5_, symObjAddr: 0x7BF0, symBinAddr: 0x100009D38, symSize: 0x4C }
  - { offsetInCU: 0x30556, offset: 0x30556, size: 0x8, addend: 0x0, symName: __ZNKSt12_Vector_baseISt6vectorIhSaIhEESaIS2_EE13get_allocatorEv, symObjAddr: 0x7B78, symBinAddr: 0x100009CC0, symSize: 0x50 }
  - { offsetInCU: 0x3055E, offset: 0x3055E, size: 0x8, addend: 0x0, symName: __ZNSt6vectorIS_IhSaIhEESaIS1_EEC1ERKS2_, symObjAddr: 0x7BC8, symBinAddr: 0x100009D10, symSize: 0x28 }
  - { offsetInCU: 0x305EF, offset: 0x305EF, size: 0x8, addend: 0x0, symName: __ZNSt6vectorIS_IhSaIhEESaIS1_EE9push_backEOS1_, symObjAddr: 0x7B48, symBinAddr: 0x100009C90, symSize: 0x30 }
  - { offsetInCU: 0x305F7, offset: 0x305F7, size: 0x8, addend: 0x0, symName: __ZNKSt12_Vector_baseISt6vectorIhSaIhEESaIS2_EE13get_allocatorEv, symObjAddr: 0x7B78, symBinAddr: 0x100009CC0, symSize: 0x50 }
  - { offsetInCU: 0x30632, offset: 0x30632, size: 0x8, addend: 0x0, symName: __ZNSt6vectorIS_IhSaIhEESaIS1_EE7reserveEm, symObjAddr: 0x79E4, symBinAddr: 0x100009B2C, symSize: 0x164 }
  - { offsetInCU: 0x3063A, offset: 0x3063A, size: 0x8, addend: 0x0, symName: __ZNSt6vectorIS_IhSaIhEESaIS1_EE9push_backEOS1_, symObjAddr: 0x7B48, symBinAddr: 0x100009C90, symSize: 0x30 }
  - { offsetInCU: 0x306AD, offset: 0x306AD, size: 0x8, addend: 0x0, symName: __ZNKSt10unique_ptrIA_cSt14default_deleteIS0_EEcvbEv, symObjAddr: 0x79BC, symBinAddr: 0x100009B04, symSize: 0x28 }
  - { offsetInCU: 0x306B5, offset: 0x306B5, size: 0x8, addend: 0x0, symName: __ZNSt6vectorIS_IhSaIhEESaIS1_EE7reserveEm, symObjAddr: 0x79E4, symBinAddr: 0x100009B2C, symSize: 0x164 }
  - { offsetInCU: 0x30767, offset: 0x30767, size: 0x8, addend: 0x0, symName: __ZSt27__uninitialized_default_n_aIPhmhET_S1_T0_RSaIT1_E, symObjAddr: 0x7994, symBinAddr: 0x100009ADC, symSize: 0x28 }
  - { offsetInCU: 0x3076F, offset: 0x3076F, size: 0x8, addend: 0x0, symName: __ZNKSt10unique_ptrIA_cSt14default_deleteIS0_EEcvbEv, symObjAddr: 0x79BC, symBinAddr: 0x100009B04, symSize: 0x28 }
  - { offsetInCU: 0x30763, offset: 0x30763, size: 0x8, addend: 0x0, symName: __ZNSt6vectorIhSaIhEE11_S_max_sizeERKS0_, symObjAddr: 0x7940, symBinAddr: 0x100009A88, symSize: 0x54 }
  - { offsetInCU: 0x3076B, offset: 0x3076B, size: 0x8, addend: 0x0, symName: __ZSt27__uninitialized_default_n_aIPhmhET_S1_T0_RSaIT1_E, symObjAddr: 0x7994, symBinAddr: 0x100009ADC, symSize: 0x28 }
  - { offsetInCU: 0x308DA, offset: 0x308DA, size: 0x8, addend: 0x0, symName: __ZSt12__get_helperILm1ESt14default_deleteIA_cEJEERT0_RSt11_Tuple_implIXT_EJS3_DpT1_EE, symObjAddr: 0x7924, symBinAddr: 0x100009A6C, symSize: 0x1C }
  - { offsetInCU: 0x308E2, offset: 0x308E2, size: 0x8, addend: 0x0, symName: __ZNSt6vectorIhSaIhEE11_S_max_sizeERKS0_, symObjAddr: 0x7940, symBinAddr: 0x100009A88, symSize: 0x54 }
  - { offsetInCU: 0x308B0, offset: 0x308B0, size: 0x8, addend: 0x0, symName: __ZNSt11_Tuple_implILm0EJPcSt14default_deleteIA_cEEE7_M_headERS4_, symObjAddr: 0x7908, symBinAddr: 0x100009A50, symSize: 0x1C }
  - { offsetInCU: 0x308B8, offset: 0x308B8, size: 0x8, addend: 0x0, symName: __ZSt12__get_helperILm1ESt14default_deleteIA_cEJEERT0_RSt11_Tuple_implIXT_EJS3_DpT1_EE, symObjAddr: 0x7924, symBinAddr: 0x100009A6C, symSize: 0x1C }
  - { offsetInCU: 0x30934, offset: 0x30934, size: 0x8, addend: 0x0, symName: __ZNSt10_Head_baseILm1ESt14default_deleteIA_cELb1EEC2Ev, symObjAddr: 0x78F4, symBinAddr: 0x100009A3C, symSize: 0x14 }
  - { offsetInCU: 0x3093C, offset: 0x3093C, size: 0x8, addend: 0x0, symName: __ZNSt11_Tuple_implILm0EJPcSt14default_deleteIA_cEEE7_M_headERS4_, symObjAddr: 0x7908, symBinAddr: 0x100009A50, symSize: 0x1C }
  - { offsetInCU: 0x3092D, offset: 0x3092D, size: 0x8, addend: 0x0, symName: __ZNSt11_Tuple_implILm0EJPcSt14default_deleteIA_cEEE7_M_headERKS4_, symObjAddr: 0x78D8, symBinAddr: 0x100009A20, symSize: 0x1C }
  - { offsetInCU: 0x30935, offset: 0x30935, size: 0x8, addend: 0x0, symName: __ZNSt10_Head_baseILm1ESt14default_deleteIA_cELb1EEC2Ev, symObjAddr: 0x78F4, symBinAddr: 0x100009A3C, symSize: 0x14 }
  - { offsetInCU: 0x3095F, offset: 0x3095F, size: 0x8, addend: 0x0, symName: __ZNSt20__uninitialized_copyILb0EE13__uninit_copyIN9__gnu_cxx17__normal_iteratorIPKSt4pairISt6vectorIfSaIfEEiES5_IS8_SaIS8_EEEEPS8_EET0_T_SG_SF_, symObjAddr: 0x78AC, symBinAddr: 0x1000099F4, symSize: 0x2C }
  - { offsetInCU: 0x30967, offset: 0x30967, size: 0x8, addend: 0x0, symName: __ZNSt11_Tuple_implILm0EJPcSt14default_deleteIA_cEEE7_M_headERKS4_, symObjAddr: 0x78D8, symBinAddr: 0x100009A20, symSize: 0x1C }
  - { offsetInCU: 0x30A2D, offset: 0x30A2D, size: 0x8, addend: 0x0, symName: __ZSt9__advanceIPKilEvRT_T0_St26random_access_iterator_tag, symObjAddr: 0x7874, symBinAddr: 0x1000099BC, symSize: 0x38 }
  - { offsetInCU: 0x30A35, offset: 0x30A35, size: 0x8, addend: 0x0, symName: __ZNSt20__uninitialized_copyILb0EE13__uninit_copyIN9__gnu_cxx17__normal_iteratorIPKSt4pairISt6vectorIfSaIfEEiES5_IS8_SaIS8_EEEEPS8_EET0_T_SG_SF_, symObjAddr: 0x78AC, symBinAddr: 0x1000099F4, symSize: 0x2C }
  - { offsetInCU: 0x30AA6, offset: 0x30AA6, size: 0x8, addend: 0x0, symName: __ZSt13__copy_move_aILb0EPKiPiET1_T0_S4_S3_, symObjAddr: 0x7814, symBinAddr: 0x10000995C, symSize: 0x60 }
  - { offsetInCU: 0x30AAE, offset: 0x30AAE, size: 0x8, addend: 0x0, symName: __ZSt9__advanceIPKilEvRT_T0_St26random_access_iterator_tag, symObjAddr: 0x7874, symBinAddr: 0x1000099BC, symSize: 0x38 }
  - { offsetInCU: 0x30B19, offset: 0x30B19, size: 0x8, addend: 0x0, symName: __ZSt12__miter_baseIPKiET_S2_, symObjAddr: 0x7800, symBinAddr: 0x100009948, symSize: 0x14 }
  - { offsetInCU: 0x30B21, offset: 0x30B21, size: 0x8, addend: 0x0, symName: __ZSt13__copy_move_aILb0EPKiPiET1_T0_S4_S3_, symObjAddr: 0x7814, symBinAddr: 0x10000995C, symSize: 0x60 }
  - { offsetInCU: 0x30B2A, offset: 0x30B2A, size: 0x8, addend: 0x0, symName: __ZNSt15__new_allocatorIiE10deallocateEPim, symObjAddr: 0x77D0, symBinAddr: 0x100009918, symSize: 0x30 }
  - { offsetInCU: 0x30B32, offset: 0x30B32, size: 0x8, addend: 0x0, symName: __ZSt12__miter_baseIPKiET_S2_, symObjAddr: 0x7800, symBinAddr: 0x100009948, symSize: 0x14 }
  - { offsetInCU: 0x30CDD, offset: 0x30CDD, size: 0x8, addend: 0x0, symName: __ZSt18generate_canonicalIfLm24ESt23mersenne_twister_engineIjLm32ELm624ELm397ELm31ELj2567483615ELm11ELj4294967295ELm7ELj2636928640ELm15ELj4022730752ELm18ELj1812433253EEET_RT1_, symObjAddr: 0x7690, symBinAddr: 0x1000097D8, symSize: 0x140 }
  - { offsetInCU: 0x30CE5, offset: 0x30CE5, size: 0x8, addend: 0x0, symName: __ZNSt15__new_allocatorIiE10deallocateEPim, symObjAddr: 0x77D0, symBinAddr: 0x100009918, symSize: 0x30 }
  - { offsetInCU: 0x30C9C, offset: 0x30C9C, size: 0x8, addend: 0x0, symName: __ZNSt23mersenne_twister_engineIjLm32ELm624ELm397ELm31ELj2567483615ELm11ELj4294967295ELm7ELj2636928640ELm15ELj4022730752ELm18ELj1812433253EE3minEv, symObjAddr: 0x7688, symBinAddr: 0x1000097D0, symSize: 0x8 }
  - { offsetInCU: 0x30CA4, offset: 0x30CA4, size: 0x8, addend: 0x0, symName: __ZSt18generate_canonicalIfLm24ESt23mersenne_twister_engineIjLm32ELm624ELm397ELm31ELj2567483615ELm11ELj4294967295ELm7ELj2636928640ELm15ELj4022730752ELm18ELj1812433253EEET_RT1_, symObjAddr: 0x7690, symBinAddr: 0x1000097D8, symSize: 0x140 }
  - { offsetInCU: 0x30CB8, offset: 0x30CB8, size: 0x8, addend: 0x0, symName: __ZNSt8__detail4_ModIjLj624ELj1ELj0ELb1ELb1EE6__calcEj, symObjAddr: 0x7640, symBinAddr: 0x100009788, symSize: 0x48 }
  - { offsetInCU: 0x30CC0, offset: 0x30CC0, size: 0x8, addend: 0x0, symName: __ZNSt23mersenne_twister_engineIjLm32ELm624ELm397ELm31ELj2567483615ELm11ELj4294967295ELm7ELj2636928640ELm15ELj4022730752ELm18ELj1812433253EE3minEv, symObjAddr: 0x7688, symBinAddr: 0x1000097D0, symSize: 0x8 }
  - { offsetInCU: 0x30CFD, offset: 0x30CFD, size: 0x8, addend: 0x0, symName: __ZNSt8__detail4_ModIjLj0ELj1ELj0ELb1ELb0EE6__calcEj, symObjAddr: 0x7624, symBinAddr: 0x10000976C, symSize: 0x1C }
  - { offsetInCU: 0x30D05, offset: 0x30D05, size: 0x8, addend: 0x0, symName: __ZNSt8__detail4_ModIjLj624ELj1ELj0ELb1ELb1EE6__calcEj, symObjAddr: 0x7640, symBinAddr: 0x100009788, symSize: 0x48 }
  - { offsetInCU: 0x30D42, offset: 0x30D42, size: 0x8, addend: 0x0, symName: __ZNSt12_Destroy_auxILb1EE9__destroyIPiEEvT_S3_, symObjAddr: 0x760C, symBinAddr: 0x100009754, symSize: 0x18 }
  - { offsetInCU: 0x30D4A, offset: 0x30D4A, size: 0x8, addend: 0x0, symName: __ZNSt8__detail4_ModIjLj0ELj1ELj0ELb1ELb0EE6__calcEj, symObjAddr: 0x7624, symBinAddr: 0x10000976C, symSize: 0x1C }
  - { offsetInCU: 0x30DDB, offset: 0x30DDB, size: 0x8, addend: 0x0, symName: __ZSt18uninitialized_copyIPKiPiET0_T_S4_S3_, symObjAddr: 0x75D0, symBinAddr: 0x100009718, symSize: 0x3C }
  - { offsetInCU: 0x30DE3, offset: 0x30DE3, size: 0x8, addend: 0x0, symName: __ZNSt12_Destroy_auxILb1EE9__destroyIPiEEvT_S3_, symObjAddr: 0x760C, symBinAddr: 0x100009754, symSize: 0x18 }
  - { offsetInCU: 0x30E5E, offset: 0x30E5E, size: 0x8, addend: 0x0, symName: __ZNSt6vectorIiSaIiEE11_S_max_sizeERKS0_, symObjAddr: 0x757C, symBinAddr: 0x1000096C4, symSize: 0x54 }
  - { offsetInCU: 0x30E66, offset: 0x30E66, size: 0x8, addend: 0x0, symName: __ZSt18uninitialized_copyIPKiPiET0_T_S4_S3_, symObjAddr: 0x75D0, symBinAddr: 0x100009718, symSize: 0x3C }
  - { offsetInCU: 0x31071, offset: 0x31071, size: 0x8, addend: 0x0, symName: __ZSt12__relocate_aIPSt4pairISt6vectorIfSaIfEEiES5_SaIS4_EET0_T_S8_S7_RT1_, symObjAddr: 0x7520, symBinAddr: 0x100009668, symSize: 0x5C }
  - { offsetInCU: 0x31079, offset: 0x31079, size: 0x8, addend: 0x0, symName: __ZNSt6vectorIiSaIiEE11_S_max_sizeERKS0_, symObjAddr: 0x757C, symBinAddr: 0x1000096C4, symSize: 0x54 }
  - { offsetInCU: 0x31067, offset: 0x31067, size: 0x8, addend: 0x0, symName: __ZNKSt6vectorISt4pairIS_IfSaIfEEiESaIS3_EE8max_sizeEv, symObjAddr: 0x7500, symBinAddr: 0x100009648, symSize: 0x20 }
  - { offsetInCU: 0x3106F, offset: 0x3106F, size: 0x8, addend: 0x0, symName: __ZSt12__relocate_aIPSt4pairISt6vectorIfSaIfEEiES5_SaIS4_EET0_T_S8_S7_RT1_, symObjAddr: 0x7520, symBinAddr: 0x100009668, symSize: 0x5C }
  - { offsetInCU: 0x310E0, offset: 0x310E0, size: 0x8, addend: 0x0, symName: __ZNSt6vectorIfSaIfEEC1ERKS1_, symObjAddr: 0x73EC, symBinAddr: 0x100009534, symSize: 0x114 }
  - { offsetInCU: 0x310E8, offset: 0x310E8, size: 0x8, addend: 0x0, symName: __ZNKSt6vectorISt4pairIS_IfSaIfEEiESaIS3_EE8max_sizeEv, symObjAddr: 0x7500, symBinAddr: 0x100009648, symSize: 0x20 }
  - { offsetInCU: 0x3125D, offset: 0x3125D, size: 0x8, addend: 0x0, symName: __ZSt4moveIRSaIfEEONSt16remove_referenceIT_E4typeEOS3_, symObjAddr: 0x73D8, symBinAddr: 0x100009520, symSize: 0x14 }
  - { offsetInCU: 0x31265, offset: 0x31265, size: 0x8, addend: 0x0, symName: __ZNSt6vectorIfSaIfEEC1ERKS1_, symObjAddr: 0x73EC, symBinAddr: 0x100009534, symSize: 0x114 }
  - { offsetInCU: 0x3125C, offset: 0x3125C, size: 0x8, addend: 0x0, symName: __ZNSt12_Vector_baseIfSaIfEE17_Vector_impl_data12_M_copy_dataERKS2_, symObjAddr: 0x7390, symBinAddr: 0x1000094D8, symSize: 0x48 }
  - { offsetInCU: 0x31264, offset: 0x31264, size: 0x8, addend: 0x0, symName: __ZSt4moveIRSaIfEEONSt16remove_referenceIT_E4typeEOS3_, symObjAddr: 0x73D8, symBinAddr: 0x100009520, symSize: 0x14 }
  - { offsetInCU: 0x312F0, offset: 0x312F0, size: 0x8, addend: 0x0, symName: __ZNSt12_Vector_baseIfSaIfEEC2ERKS0_, symObjAddr: 0x7368, symBinAddr: 0x1000094B0, symSize: 0x28 }
  - { offsetInCU: 0x312F8, offset: 0x312F8, size: 0x8, addend: 0x0, symName: __ZNSt12_Vector_baseIfSaIfEE17_Vector_impl_data12_M_copy_dataERKS2_, symObjAddr: 0x7390, symBinAddr: 0x1000094D8, symSize: 0x48 }
  - { offsetInCU: 0x31309, offset: 0x31309, size: 0x8, addend: 0x0, symName: __ZNKSt12_Vector_baseIfSaIfEE19_M_get_Tp_allocatorEv, symObjAddr: 0x7354, symBinAddr: 0x10000949C, symSize: 0x14 }
  - { offsetInCU: 0x31311, offset: 0x31311, size: 0x8, addend: 0x0, symName: __ZNSt12_Vector_baseIfSaIfEEC2ERKS0_, symObjAddr: 0x7368, symBinAddr: 0x1000094B0, symSize: 0x28 }
  - { offsetInCU: 0x31338, offset: 0x31338, size: 0x8, addend: 0x0, symName: __ZNK9__gnu_cxx17__normal_iteratorIPfSt6vectorIfSaIfEEEdeEv, symObjAddr: 0x733C, symBinAddr: 0x100009484, symSize: 0x18 }
  - { offsetInCU: 0x31340, offset: 0x31340, size: 0x8, addend: 0x0, symName: __ZNKSt12_Vector_baseIfSaIfEE19_M_get_Tp_allocatorEv, symObjAddr: 0x7354, symBinAddr: 0x10000949C, symSize: 0x14 }
  - { offsetInCU: 0x31367, offset: 0x31367, size: 0x8, addend: 0x0, symName: __ZNK9__gnu_cxx17__normal_iteratorIPfSt6vectorIfSaIfEEEmiEl, symObjAddr: 0x72F8, symBinAddr: 0x100009440, symSize: 0x44 }
  - { offsetInCU: 0x3136F, offset: 0x3136F, size: 0x8, addend: 0x0, symName: __ZNK9__gnu_cxx17__normal_iteratorIPfSt6vectorIfSaIfEEEdeEv, symObjAddr: 0x733C, symBinAddr: 0x100009484, symSize: 0x18 }
  - { offsetInCU: 0x313AA, offset: 0x313AA, size: 0x8, addend: 0x0, symName: __ZNK9__gnu_cxx17__normal_iteratorIPfSt6vectorIfSaIfEEE4baseEv, symObjAddr: 0x72E4, symBinAddr: 0x10000942C, symSize: 0x14 }
  - { offsetInCU: 0x313B2, offset: 0x313B2, size: 0x8, addend: 0x0, symName: __ZNK9__gnu_cxx17__normal_iteratorIPfSt6vectorIfSaIfEEEmiEl, symObjAddr: 0x72F8, symBinAddr: 0x100009440, symSize: 0x44 }
  - { offsetInCU: 0x313D9, offset: 0x313D9, size: 0x8, addend: 0x0, symName: __ZNSt6vectorIfSaIfEE11_S_relocateEPfS2_S2_RS0_, symObjAddr: 0x72B0, symBinAddr: 0x1000093F8, symSize: 0x34 }
  - { offsetInCU: 0x313E1, offset: 0x313E1, size: 0x8, addend: 0x0, symName: __ZNK9__gnu_cxx17__normal_iteratorIPfSt6vectorIfSaIfEEE4baseEv, symObjAddr: 0x72E4, symBinAddr: 0x10000942C, symSize: 0x14 }
  - { offsetInCU: 0x31447, offset: 0x31447, size: 0x8, addend: 0x0, symName: __ZNSt12_Vector_baseIfSaIfEE11_M_allocateEm, symObjAddr: 0x7260, symBinAddr: 0x1000093A8, symSize: 0x50 }
  - { offsetInCU: 0x3144F, offset: 0x3144F, size: 0x8, addend: 0x0, symName: __ZNSt6vectorIfSaIfEE11_S_relocateEPfS2_S2_RS0_, symObjAddr: 0x72B0, symBinAddr: 0x1000093F8, symSize: 0x34 }
  - { offsetInCU: 0x31548, offset: 0x31548, size: 0x8, addend: 0x0, symName: __ZN9__gnu_cxxmiIPfSt6vectorIfSaIfEEEENS_17__normal_iteratorIT_T0_E15difference_typeERKS8_SB_, symObjAddr: 0x7220, symBinAddr: 0x100009368, symSize: 0x40 }
  - { offsetInCU: 0x31550, offset: 0x31550, size: 0x8, addend: 0x0, symName: __ZNSt12_Vector_baseIfSaIfEE11_M_allocateEm, symObjAddr: 0x7260, symBinAddr: 0x1000093A8, symSize: 0x50 }
  - { offsetInCU: 0x31536, offset: 0x31536, size: 0x8, addend: 0x0, symName: __ZNSt6vectorIfSaIfEE5beginEv, symObjAddr: 0x71FC, symBinAddr: 0x100009344, symSize: 0x24 }
  - { offsetInCU: 0x3153E, offset: 0x3153E, size: 0x8, addend: 0x0, symName: __ZN9__gnu_cxxmiIPfSt6vectorIfSaIfEEEENS_17__normal_iteratorIT_T0_E15difference_typeERKS8_SB_, symObjAddr: 0x7220, symBinAddr: 0x100009368, symSize: 0x40 }
  - { offsetInCU: 0x31565, offset: 0x31565, size: 0x8, addend: 0x0, symName: __ZNKSt6vectorIfSaIfEE12_M_check_lenEmPKc, symObjAddr: 0x712C, symBinAddr: 0x100009274, symSize: 0xD0 }
  - { offsetInCU: 0x3156D, offset: 0x3156D, size: 0x8, addend: 0x0, symName: __ZNSt6vectorIfSaIfEE5beginEv, symObjAddr: 0x71FC, symBinAddr: 0x100009344, symSize: 0x24 }
  - { offsetInCU: 0x3163B, offset: 0x3163B, size: 0x8, addend: 0x0, symName: __ZN9__gnu_cxx17__normal_iteratorIPfSt6vectorIfSaIfEEEC1ERKS1_, symObjAddr: 0x7104, symBinAddr: 0x10000924C, symSize: 0x28 }
  - { offsetInCU: 0x31643, offset: 0x31643, size: 0x8, addend: 0x0, symName: __ZNKSt6vectorIfSaIfEE12_M_check_lenEmPKc, symObjAddr: 0x712C, symBinAddr: 0x100009274, symSize: 0xD0 }
  - { offsetInCU: 0x31691, offset: 0x31691, size: 0x8, addend: 0x0, symName: __ZNSt12_Destroy_auxILb1EE9__destroyIPfEEvT_S3_, symObjAddr: 0x70EC, symBinAddr: 0x100009234, symSize: 0x18 }
  - { offsetInCU: 0x31699, offset: 0x31699, size: 0x8, addend: 0x0, symName: __ZN9__gnu_cxx17__normal_iteratorIPfSt6vectorIfSaIfEEEC1ERKS1_, symObjAddr: 0x7104, symBinAddr: 0x10000924C, symSize: 0x28 }
  - { offsetInCU: 0x316D6, offset: 0x316D6, size: 0x8, addend: 0x0, symName: __ZNSt15__new_allocatorIfE10deallocateEPfm, symObjAddr: 0x70BC, symBinAddr: 0x100009204, symSize: 0x30 }
  - { offsetInCU: 0x316DE, offset: 0x316DE, size: 0x8, addend: 0x0, symName: __ZNSt12_Destroy_auxILb1EE9__destroyIPfEEvT_S3_, symObjAddr: 0x70EC, symBinAddr: 0x100009234, symSize: 0x18 }
  - { offsetInCU: 0x3172D, offset: 0x3172D, size: 0x8, addend: 0x0, symName: __ZNSt15__new_allocatorISt4pairISt6vectorIfSaIfEEiEE10deallocateEPS4_m, symObjAddr: 0x708C, symBinAddr: 0x1000091D4, symSize: 0x30 }
  - { offsetInCU: 0x31735, offset: 0x31735, size: 0x8, addend: 0x0, symName: __ZNSt15__new_allocatorIfE10deallocateEPfm, symObjAddr: 0x70BC, symBinAddr: 0x100009204, symSize: 0x30 }
  - { offsetInCU: 0x31784, offset: 0x31784, size: 0x8, addend: 0x0, symName: __ZNSt12_Destroy_auxILb0EE9__destroyIPSt4pairISt6vectorIfSaIfEEiEEEvT_S8_, symObjAddr: 0x7040, symBinAddr: 0x100009188, symSize: 0x4C }
  - { offsetInCU: 0x3178C, offset: 0x3178C, size: 0x8, addend: 0x0, symName: __ZNSt15__new_allocatorISt4pairISt6vectorIfSaIfEEiEE10deallocateEPS4_m, symObjAddr: 0x708C, symBinAddr: 0x1000091D4, symSize: 0x30 }
  - { offsetInCU: 0x317D7, offset: 0x317D7, size: 0x8, addend: 0x0, symName: __ZNSt20__uninitialized_copyILb1EE13__uninit_copyIN9__gnu_cxx17__normal_iteratorIPKhSt6vectorIhSaIhEEEEPhEET0_T_SC_SB_, symObjAddr: 0x7014, symBinAddr: 0x10000915C, symSize: 0x2C }
  - { offsetInCU: 0x317DF, offset: 0x317DF, size: 0x8, addend: 0x0, symName: __ZNSt12_Destroy_auxILb0EE9__destroyIPSt4pairISt6vectorIfSaIfEEiEEEvT_S8_, symObjAddr: 0x7040, symBinAddr: 0x100009188, symSize: 0x4C }
  - { offsetInCU: 0x3184B, offset: 0x3184B, size: 0x8, addend: 0x0, symName: __ZNSt12_Vector_baseIhSaIhEE11_M_allocateEm, symObjAddr: 0x6FC4, symBinAddr: 0x10000910C, symSize: 0x50 }
  - { offsetInCU: 0x31853, offset: 0x31853, size: 0x8, addend: 0x0, symName: __ZNSt20__uninitialized_copyILb1EE13__uninit_copyIN9__gnu_cxx17__normal_iteratorIPKhSt6vectorIhSaIhEEEEPhEET0_T_SC_SB_, symObjAddr: 0x7014, symBinAddr: 0x10000915C, symSize: 0x2C }
  - { offsetInCU: 0x318C3, offset: 0x318C3, size: 0x8, addend: 0x0, symName: __ZNSt20__uninitialized_copyILb0EE13__uninit_copyIN9__gnu_cxx17__normal_iteratorIPKSt6vectorIhSaIhEES4_IS6_SaIS6_EEEEPS6_EET0_T_SE_SD_, symObjAddr: 0x6F98, symBinAddr: 0x1000090E0, symSize: 0x2C }
  - { offsetInCU: 0x318CB, offset: 0x318CB, size: 0x8, addend: 0x0, symName: __ZNSt12_Vector_baseIhSaIhEE11_M_allocateEm, symObjAddr: 0x6FC4, symBinAddr: 0x10000910C, symSize: 0x50 }
  - { offsetInCU: 0x31937, offset: 0x31937, size: 0x8, addend: 0x0, symName: __ZNSt12_Vector_baseISt6vectorIhSaIhEESaIS2_EE11_M_allocateEm, symObjAddr: 0x6F48, symBinAddr: 0x100009090, symSize: 0x50 }
  - { offsetInCU: 0x3193F, offset: 0x3193F, size: 0x8, addend: 0x0, symName: __ZNSt20__uninitialized_copyILb0EE13__uninit_copyIN9__gnu_cxx17__normal_iteratorIPKSt6vectorIhSaIhEES4_IS6_SaIS6_EEEEPS6_EET0_T_SE_SD_, symObjAddr: 0x6F98, symBinAddr: 0x1000090E0, symSize: 0x2C }
  - { offsetInCU: 0x319AF, offset: 0x319AF, size: 0x8, addend: 0x0, symName: __ZNSt12_Destroy_auxILb1EE9__destroyIPhEEvT_S3_, symObjAddr: 0x6F30, symBinAddr: 0x100009078, symSize: 0x18 }
  - { offsetInCU: 0x319B7, offset: 0x319B7, size: 0x8, addend: 0x0, symName: __ZNSt12_Vector_baseISt6vectorIhSaIhEESaIS2_EE11_M_allocateEm, symObjAddr: 0x6F48, symBinAddr: 0x100009090, symSize: 0x50 }
  - { offsetInCU: 0x31A36, offset: 0x31A36, size: 0x8, addend: 0x0, symName: __ZNSt12_Destroy_auxILb0EE9__destroyIPSt6vectorIhSaIhEEEEvT_S6_, symObjAddr: 0x6EE4, symBinAddr: 0x10000902C, symSize: 0x4C }
  - { offsetInCU: 0x31A3E, offset: 0x31A3E, size: 0x8, addend: 0x0, symName: __ZNSt12_Destroy_auxILb1EE9__destroyIPhEEvT_S3_, symObjAddr: 0x6F30, symBinAddr: 0x100009078, symSize: 0x18 }
  - { offsetInCU: 0x31B2D, offset: 0x31B2D, size: 0x8, addend: 0x0, symName: __ZNSt12_Vector_baseIhSaIhEE17_Vector_impl_dataC2EOS2_, symObjAddr: 0x6E74, symBinAddr: 0x100008FBC, symSize: 0x70 }
  - { offsetInCU: 0x31B35, offset: 0x31B35, size: 0x8, addend: 0x0, symName: __ZNSt12_Destroy_auxILb0EE9__destroyIPSt6vectorIhSaIhEEEEvT_S6_, symObjAddr: 0x6EE4, symBinAddr: 0x10000902C, symSize: 0x4C }
  - { offsetInCU: 0x31C13, offset: 0x31C13, size: 0x8, addend: 0x0, symName: __ZSt4moveIRNSt12_Vector_baseIhSaIhEE12_Vector_implEEONSt16remove_referenceIT_E4typeEOS6_, symObjAddr: 0x6E60, symBinAddr: 0x100008FA8, symSize: 0x14 }
  - { offsetInCU: 0x31C1B, offset: 0x31C1B, size: 0x8, addend: 0x0, symName: __ZNSt12_Vector_baseIhSaIhEE17_Vector_impl_dataC2EOS2_, symObjAddr: 0x6E74, symBinAddr: 0x100008FBC, symSize: 0x70 }
  - { offsetInCU: 0x31CBA, offset: 0x31CBA, size: 0x8, addend: 0x0, symName: __ZN5mnist21read_mnist_image_fileISt6vectorS1_IhSaIhEEZNS_19read_dataset_directIS1_S3_hEENS_13MNIST_datasetIT_T0_T1_EERKNSt7__cxx1112basic_stringIcSt11char_traitsIcESaIcEEEmmEUlvE0_EEvRT_IJS7_EESH_mS8_, symObjAddr: 0x6CB8, symBinAddr: 0x100008E00, symSize: 0x1A8 }
  - { offsetInCU: 0x31CC2, offset: 0x31CC2, size: 0x8, addend: 0x0, symName: __ZSt4moveIRNSt12_Vector_baseIhSaIhEE12_Vector_implEEONSt16remove_referenceIT_E4typeEOS6_, symObjAddr: 0x6E60, symBinAddr: 0x100008FA8, symSize: 0x14 }
  - { offsetInCU: 0x31D67, offset: 0x31D67, size: 0x8, addend: 0x0, symName: __ZNSt6vectorIhSaIhEE14_M_move_assignEOS1_St17integral_constantIbLb1EE, symObjAddr: 0x6C24, symBinAddr: 0x100008D6C, symSize: 0x94 }
  - { offsetInCU: 0x31D6F, offset: 0x31D6F, size: 0x8, addend: 0x0, symName: __ZN5mnist21read_mnist_image_fileISt6vectorS1_IhSaIhEEZNS_19read_dataset_directIS1_S3_hEENS_13MNIST_datasetIT_T0_T1_EERKNSt7__cxx1112basic_stringIcSt11char_traitsIcESaIcEEEmmEUlvE0_EEvRT_IJS7_EESH_mS8_, symObjAddr: 0x6CB8, symBinAddr: 0x100008E00, symSize: 0x1A8 }
  - { offsetInCU: 0x31E8E, offset: 0x31E8E, size: 0x8, addend: 0x0, symName: __ZSt4moveIRSt6vectorIhSaIhEEEONSt16remove_referenceIT_E4typeEOS5_, symObjAddr: 0x6C10, symBinAddr: 0x100008D58, symSize: 0x14 }
  - { offsetInCU: 0x31E96, offset: 0x31E96, size: 0x8, addend: 0x0, symName: __ZNSt6vectorIhSaIhEE14_M_move_assignEOS1_St17integral_constantIbLb1EE, symObjAddr: 0x6C24, symBinAddr: 0x100008D6C, symSize: 0x94 }
  - { offsetInCU: 0x31F1E, offset: 0x31F1E, size: 0x8, addend: 0x0, symName: __ZN5mnist21read_mnist_label_fileISt6vectorhEEvRT_IJT0_EERKNSt7__cxx1112basic_stringIcSt11char_traitsIcESaIcEEEm, symObjAddr: 0x6AFC, symBinAddr: 0x100008C44, symSize: 0x114 }
  - { offsetInCU: 0x31F26, offset: 0x31F26, size: 0x8, addend: 0x0, symName: __ZSt4moveIRSt6vectorIhSaIhEEEONSt16remove_referenceIT_E4typeEOS5_, symObjAddr: 0x6C10, symBinAddr: 0x100008D58, symSize: 0x14 }
  - { offsetInCU: 0x31F87, offset: 0x31F87, size: 0x8, addend: 0x0, symName: __ZNSt6vectorIS_IhSaIhEESaIS1_EE14_M_move_assignEOS3_St17integral_constantIbLb1EE, symObjAddr: 0x6A68, symBinAddr: 0x100008BB0, symSize: 0x94 }
  - { offsetInCU: 0x31F8F, offset: 0x31F8F, size: 0x8, addend: 0x0, symName: __ZN5mnist21read_mnist_label_fileISt6vectorhEEvRT_IJT0_EERKNSt7__cxx1112basic_stringIcSt11char_traitsIcESaIcEEEm, symObjAddr: 0x6AFC, symBinAddr: 0x100008C44, symSize: 0x114 }
  - { offsetInCU: 0x320C8, offset: 0x320C8, size: 0x8, addend: 0x0, symName: __ZSt4moveIRSt6vectorIS0_IhSaIhEESaIS2_EEEONSt16remove_referenceIT_E4typeEOS7_, symObjAddr: 0x6A54, symBinAddr: 0x100008B9C, symSize: 0x14 }
  - { offsetInCU: 0x320D0, offset: 0x320D0, size: 0x8, addend: 0x0, symName: __ZNSt6vectorIS_IhSaIhEESaIS1_EE14_M_move_assignEOS3_St17integral_constantIbLb1EE, symObjAddr: 0x6A68, symBinAddr: 0x100008BB0, symSize: 0x94 }
  - { offsetInCU: 0x32169, offset: 0x32169, size: 0x8, addend: 0x0, symName: __ZN5mnist21read_mnist_image_fileISt6vectorS1_IhSaIhEEZNS_19read_dataset_directIS1_S3_hEENS_13MNIST_datasetIT_T0_T1_EERKNSt7__cxx1112basic_stringIcSt11char_traitsIcESaIcEEEmmEUlvE_EEvRT_IJS7_EESH_mS8_, symObjAddr: 0x68AC, symBinAddr: 0x1000089F4, symSize: 0x1A8 }
  - { offsetInCU: 0x32171, offset: 0x32171, size: 0x8, addend: 0x0, symName: __ZSt4moveIRSt6vectorIS0_IhSaIhEESaIS2_EEEONSt16remove_referenceIT_E4typeEOS7_, symObjAddr: 0x6A54, symBinAddr: 0x100008B9C, symSize: 0x14 }
  - { offsetInCU: 0x32217, offset: 0x32217, size: 0x8, addend: 0x0, symName: __ZNSt6vectorIhSaIhEE21_M_default_initializeEm, symObjAddr: 0x685C, symBinAddr: 0x1000089A4, symSize: 0x50 }
  - { offsetInCU: 0x3221F, offset: 0x3221F, size: 0x8, addend: 0x0, symName: __ZN5mnist21read_mnist_image_fileISt6vectorS1_IhSaIhEEZNS_19read_dataset_directIS1_S3_hEENS_13MNIST_datasetIT_T0_T1_EERKNSt7__cxx1112basic_stringIcSt11char_traitsIcESaIcEEEmmEUlvE_EEvRT_IJS7_EESH_mS8_, symObjAddr: 0x68AC, symBinAddr: 0x1000089F4, symSize: 0x1A8 }
  - { offsetInCU: 0x3225A, offset: 0x3225A, size: 0x8, addend: 0x0, symName: __ZNSt6vectorIhSaIhEE17_S_check_init_lenEmRKS0_, symObjAddr: 0x67D8, symBinAddr: 0x100008920, symSize: 0x84 }
  - { offsetInCU: 0x32262, offset: 0x32262, size: 0x8, addend: 0x0, symName: __ZNSt6vectorIhSaIhEE21_M_default_initializeEm, symObjAddr: 0x685C, symBinAddr: 0x1000089A4, symSize: 0x50 }
  - { offsetInCU: 0x32395, offset: 0x32395, size: 0x8, addend: 0x0, symName: __ZNSt12_Vector_baseIhSaIhEE17_Vector_impl_dataC1Ev, symObjAddr: 0x67AC, symBinAddr: 0x1000088F4, symSize: 0x2C }
  - { offsetInCU: 0x3239D, offset: 0x3239D, size: 0x8, addend: 0x0, symName: __ZNSt6vectorIhSaIhEE17_S_check_init_lenEmRKS0_, symObjAddr: 0x67D8, symBinAddr: 0x100008920, symSize: 0x84 }
  - { offsetInCU: 0x323C5, offset: 0x323C5, size: 0x8, addend: 0x0, symName: __ZNSt12_Vector_baseIhSaIhEE17_Vector_impl_dataC2Ev, symObjAddr: 0x6780, symBinAddr: 0x1000088C8, symSize: 0x2C }
  - { offsetInCU: 0x323CD, offset: 0x323CD, size: 0x8, addend: 0x0, symName: __ZNSt12_Vector_baseIhSaIhEE17_Vector_impl_dataC1Ev, symObjAddr: 0x67AC, symBinAddr: 0x1000088F4, symSize: 0x2C }
  - { offsetInCU: 0x32422, offset: 0x32422, size: 0x8, addend: 0x0, symName: __ZNSt12_Vector_baseISt6vectorIhSaIhEESaIS2_EE17_Vector_impl_dataC1Ev, symObjAddr: 0x6754, symBinAddr: 0x10000889C, symSize: 0x2C }
  - { offsetInCU: 0x3242A, offset: 0x3242A, size: 0x8, addend: 0x0, symName: __ZNSt12_Vector_baseIhSaIhEE17_Vector_impl_dataC2Ev, symObjAddr: 0x6780, symBinAddr: 0x1000088C8, symSize: 0x2C }
  - { offsetInCU: 0x32452, offset: 0x32452, size: 0x8, addend: 0x0, symName: __ZNSt12_Vector_baseISt6vectorIhSaIhEESaIS2_EE17_Vector_impl_dataC2Ev, symObjAddr: 0x6728, symBinAddr: 0x100008870, symSize: 0x2C }
  - { offsetInCU: 0x3245A, offset: 0x3245A, size: 0x8, addend: 0x0, symName: __ZNSt12_Vector_baseISt6vectorIhSaIhEESaIS2_EE17_Vector_impl_dataC1Ev, symObjAddr: 0x6754, symBinAddr: 0x10000889C, symSize: 0x2C }
  - { offsetInCU: 0x324F8, offset: 0x324F8, size: 0x8, addend: 0x0, symName: __ZSt3getILm1EJPcSt14default_deleteIA_cEEERNSt13tuple_elementIXT_ESt5tupleIJDpT0_EEE4typeERS8_, symObjAddr: 0x670C, symBinAddr: 0x100008854, symSize: 0x1C }
  - { offsetInCU: 0x32500, offset: 0x32500, size: 0x8, addend: 0x0, symName: __ZNSt12_Vector_baseISt6vectorIhSaIhEESaIS2_EE17_Vector_impl_dataC2Ev, symObjAddr: 0x6728, symBinAddr: 0x100008870, symSize: 0x2C }
  - { offsetInCU: 0x32539, offset: 0x32539, size: 0x8, addend: 0x0, symName: __ZSt12__get_helperILm0EPcJSt14default_deleteIA_cEEERT0_RSt11_Tuple_implIXT_EJS4_DpT1_EE, symObjAddr: 0x66F0, symBinAddr: 0x100008838, symSize: 0x1C }
  - { offsetInCU: 0x32541, offset: 0x32541, size: 0x8, addend: 0x0, symName: __ZSt3getILm1EJPcSt14default_deleteIA_cEEERNSt13tuple_elementIXT_ESt5tupleIJDpT0_EEE4typeERS8_, symObjAddr: 0x670C, symBinAddr: 0x100008854, symSize: 0x1C }
  - { offsetInCU: 0x3257D, offset: 0x3257D, size: 0x8, addend: 0x0, symName: __ZNSt10_Head_baseILm0EPcLb0EEC2Ev, symObjAddr: 0x66D4, symBinAddr: 0x10000881C, symSize: 0x1C }
  - { offsetInCU: 0x32585, offset: 0x32585, size: 0x8, addend: 0x0, symName: __ZSt12__get_helperILm0EPcJSt14default_deleteIA_cEEERT0_RSt11_Tuple_implIXT_EJS4_DpT1_EE, symObjAddr: 0x66F0, symBinAddr: 0x100008838, symSize: 0x1C }
  - { offsetInCU: 0x325DC, offset: 0x325DC, size: 0x8, addend: 0x0, symName: __ZNSt11_Tuple_implILm1EJSt14default_deleteIA_cEEEC2Ev, symObjAddr: 0x66B4, symBinAddr: 0x1000087FC, symSize: 0x20 }
  - { offsetInCU: 0x325E4, offset: 0x325E4, size: 0x8, addend: 0x0, symName: __ZNSt10_Head_baseILm0EPcLb0EEC2Ev, symObjAddr: 0x66D4, symBinAddr: 0x10000881C, symSize: 0x1C }
  - { offsetInCU: 0x3263A, offset: 0x3263A, size: 0x8, addend: 0x0, symName: __ZSt12__get_helperILm0EPcJSt14default_deleteIA_cEEERKT0_RKSt11_Tuple_implIXT_EJS4_DpT1_EE, symObjAddr: 0x6698, symBinAddr: 0x1000087E0, symSize: 0x1C }
  - { offsetInCU: 0x32642, offset: 0x32642, size: 0x8, addend: 0x0, symName: __ZNSt11_Tuple_implILm1EJSt14default_deleteIA_cEEEC2Ev, symObjAddr: 0x66B4, symBinAddr: 0x1000087FC, symSize: 0x20 }
  - { offsetInCU: 0x32810, offset: 0x32810, size: 0x8, addend: 0x0, symName: __ZSt18uninitialized_copyIN9__gnu_cxx17__normal_iteratorIPKSt4pairISt6vectorIfSaIfEEiES3_IS6_SaIS6_EEEEPS6_ET0_T_SE_SD_, symObjAddr: 0x6664, symBinAddr: 0x1000087AC, symSize: 0x34 }
  - { offsetInCU: 0x32818, offset: 0x32818, size: 0x8, addend: 0x0, symName: __ZSt12__get_helperILm0EPcJSt14default_deleteIA_cEEERKT0_RKSt11_Tuple_implIXT_EJS4_DpT1_EE, symObjAddr: 0x6698, symBinAddr: 0x1000087E0, symSize: 0x1C }
  - { offsetInCU: 0x3280C, offset: 0x3280C, size: 0x8, addend: 0x0, symName: __ZN9__gnu_cxx17__normal_iteratorIPKSt4pairISt6vectorIfSaIfEEiES2_IS5_SaIS5_EEEC1ERKS7_, symObjAddr: 0x663C, symBinAddr: 0x100008784, symSize: 0x28 }
  - { offsetInCU: 0x32814, offset: 0x32814, size: 0x8, addend: 0x0, symName: __ZSt18uninitialized_copyIN9__gnu_cxx17__normal_iteratorIPKSt4pairISt6vectorIfSaIfEEiES3_IS6_SaIS6_EEEEPS6_ET0_T_SE_SD_, symObjAddr: 0x6664, symBinAddr: 0x1000087AC, symSize: 0x34 }
  - { offsetInCU: 0x327F2, offset: 0x327F2, size: 0x8, addend: 0x0, symName: __ZNSt12_Vector_baseISt4pairISt6vectorIfSaIfEEiESaIS4_EE17_M_create_storageEm, symObjAddr: 0x65DC, symBinAddr: 0x100008724, symSize: 0x60 }
  - { offsetInCU: 0x327FA, offset: 0x327FA, size: 0x8, addend: 0x0, symName: __ZN9__gnu_cxx17__normal_iteratorIPKSt4pairISt6vectorIfSaIfEEiES2_IS5_SaIS5_EEEC1ERKS7_, symObjAddr: 0x663C, symBinAddr: 0x100008784, symSize: 0x28 }
  - { offsetInCU: 0x328AF, offset: 0x328AF, size: 0x8, addend: 0x0, symName: __ZNSt12_Vector_baseISt4pairISt6vectorIfSaIfEEiESaIS4_EE12_Vector_implC1ERKS5_, symObjAddr: 0x6590, symBinAddr: 0x1000086D8, symSize: 0x4C }
  - { offsetInCU: 0x328B7, offset: 0x328B7, size: 0x8, addend: 0x0, symName: __ZNSt12_Vector_baseISt4pairISt6vectorIfSaIfEEiESaIS4_EE17_M_create_storageEm, symObjAddr: 0x65DC, symBinAddr: 0x100008724, symSize: 0x60 }
  - { offsetInCU: 0x329BB, offset: 0x329BB, size: 0x8, addend: 0x0, symName: __ZSt4copyIPKiPiET0_T_S4_S3_, symObjAddr: 0x6548, symBinAddr: 0x100008690, symSize: 0x48 }
  - { offsetInCU: 0x329C3, offset: 0x329C3, size: 0x8, addend: 0x0, symName: __ZNSt12_Vector_baseISt4pairISt6vectorIfSaIfEEiESaIS4_EE12_Vector_implC1ERKS5_, symObjAddr: 0x6590, symBinAddr: 0x1000086D8, symSize: 0x4C }
  - { offsetInCU: 0x32A04, offset: 0x32A04, size: 0x8, addend: 0x0, symName: __ZNSt6vectorIiSaIiEE15_M_erase_at_endEPi, symObjAddr: 0x64C0, symBinAddr: 0x100008608, symSize: 0x88 }
  - { offsetInCU: 0x32A0C, offset: 0x32A0C, size: 0x8, addend: 0x0, symName: __ZSt4copyIPKiPiET0_T_S4_S3_, symObjAddr: 0x6548, symBinAddr: 0x100008690, symSize: 0x48 }
  - { offsetInCU: 0x32AAF, offset: 0x32AAF, size: 0x8, addend: 0x0, symName: __ZNSt6vectorIiSaIiEE20_M_allocate_and_copyIPKiEEPimT_S6_, symObjAddr: 0x643C, symBinAddr: 0x100008584, symSize: 0x84 }
  - { offsetInCU: 0x32AB7, offset: 0x32AB7, size: 0x8, addend: 0x0, symName: __ZNSt6vectorIiSaIiEE15_M_erase_at_endEPi, symObjAddr: 0x64C0, symBinAddr: 0x100008608, symSize: 0x88 }
  - { offsetInCU: 0x32B3B, offset: 0x32B3B, size: 0x8, addend: 0x0, symName: __ZNKSt6vectorIiSaIiEE8capacityEv, symObjAddr: 0x6414, symBinAddr: 0x10000855C, symSize: 0x28 }
  - { offsetInCU: 0x32B43, offset: 0x32B43, size: 0x8, addend: 0x0, symName: __ZNSt6vectorIiSaIiEE20_M_allocate_and_copyIPKiEEPimT_S6_, symObjAddr: 0x643C, symBinAddr: 0x100008584, symSize: 0x84 }
  - { offsetInCU: 0x32BAC, offset: 0x32BAC, size: 0x8, addend: 0x0, symName: __ZNKSt25uniform_real_distributionIfE10param_type1aEv, symObjAddr: 0x63FC, symBinAddr: 0x100008544, symSize: 0x18 }
  - { offsetInCU: 0x32BB4, offset: 0x32BB4, size: 0x8, addend: 0x0, symName: __ZNKSt6vectorIiSaIiEE8capacityEv, symObjAddr: 0x6414, symBinAddr: 0x10000855C, symSize: 0x28 }
  - { offsetInCU: 0x32BDB, offset: 0x32BDB, size: 0x8, addend: 0x0, symName: __ZNKSt25uniform_real_distributionIfE10param_type1bEv, symObjAddr: 0x63E4, symBinAddr: 0x10000852C, symSize: 0x18 }
  - { offsetInCU: 0x32BE3, offset: 0x32BE3, size: 0x8, addend: 0x0, symName: __ZNKSt25uniform_real_distributionIfE10param_type1aEv, symObjAddr: 0x63FC, symBinAddr: 0x100008544, symSize: 0x18 }
  - { offsetInCU: 0x32C0A, offset: 0x32C0A, size: 0x8, addend: 0x0, symName: __ZNSt8__detail8_AdaptorISt23mersenne_twister_engineIjLm32ELm624ELm397ELm31ELj2567483615ELm11ELj4294967295ELm7ELj2636928640ELm15ELj4022730752ELm18ELj1812433253EEfEclEv, symObjAddr: 0x63C4, symBinAddr: 0x10000850C, symSize: 0x20 }
  - { offsetInCU: 0x32C12, offset: 0x32C12, size: 0x8, addend: 0x0, symName: __ZNKSt25uniform_real_distributionIfE10param_type1bEv, symObjAddr: 0x63E4, symBinAddr: 0x10000852C, symSize: 0x18 }
  - { offsetInCU: 0x32D0F, offset: 0x32D0F, size: 0x8, addend: 0x0, symName: __ZNSt8__detail8_AdaptorISt23mersenne_twister_engineIjLm32ELm624ELm397ELm31ELj2567483615ELm11ELj4294967295ELm7ELj2636928640ELm15ELj4022730752ELm18ELj1812433253EEfEC1ERS2_, symObjAddr: 0x63A0, symBinAddr: 0x1000084E8, symSize: 0x24 }
  - { offsetInCU: 0x32D17, offset: 0x32D17, size: 0x8, addend: 0x0, symName: __ZNSt8__detail8_AdaptorISt23mersenne_twister_engineIjLm32ELm624ELm397ELm31ELj2567483615ELm11ELj4294967295ELm7ELj2636928640ELm15ELj4022730752ELm18ELj1812433253EEfEclEv, symObjAddr: 0x63C4, symBinAddr: 0x10000850C, symSize: 0x20 }
  - { offsetInCU: 0x32CEB, offset: 0x32CEB, size: 0x8, addend: 0x0, symName: __ZNSt8__detail5__modIjLj624ELj1ELj0EEET_S1_, symObjAddr: 0x637C, symBinAddr: 0x1000084C4, symSize: 0x24 }
  - { offsetInCU: 0x32CF3, offset: 0x32CF3, size: 0x8, addend: 0x0, symName: __ZNSt8__detail8_AdaptorISt23mersenne_twister_engineIjLm32ELm624ELm397ELm31ELj2567483615ELm11ELj4294967295ELm7ELj2636928640ELm15ELj4022730752ELm18ELj1812433253EEfEC1ERS2_, symObjAddr: 0x63A0, symBinAddr: 0x1000084E8, symSize: 0x24 }
  - { offsetInCU: 0x32D85, offset: 0x32D85, size: 0x8, addend: 0x0, symName: __ZNSt8__detail5__modIjLj0ELj1ELj0EEET_S1_, symObjAddr: 0x6358, symBinAddr: 0x1000084A0, symSize: 0x24 }
  - { offsetInCU: 0x32D8D, offset: 0x32D8D, size: 0x8, addend: 0x0, symName: __ZNSt8__detail5__modIjLj624ELj1ELj0EEET_S1_, symObjAddr: 0x637C, symBinAddr: 0x1000084C4, symSize: 0x24 }
  - { offsetInCU: 0x32E04, offset: 0x32E04, size: 0x8, addend: 0x0, symName: __ZSt8_DestroyIPiEvT_S1_, symObjAddr: 0x6330, symBinAddr: 0x100008478, symSize: 0x28 }
  - { offsetInCU: 0x32E0C, offset: 0x32E0C, size: 0x8, addend: 0x0, symName: __ZNSt8__detail5__modIjLj0ELj1ELj0EEET_S1_, symObjAddr: 0x6358, symBinAddr: 0x1000084A0, symSize: 0x24 }
  - { offsetInCU: 0x32EA0, offset: 0x32EA0, size: 0x8, addend: 0x0, symName: __ZSt22__uninitialized_copy_aIPKiPiiET0_T_S4_S3_RSaIT1_E, symObjAddr: 0x6300, symBinAddr: 0x100008448, symSize: 0x30 }
  - { offsetInCU: 0x32EA8, offset: 0x32EA8, size: 0x8, addend: 0x0, symName: __ZSt8_DestroyIPiEvT_S1_, symObjAddr: 0x6330, symBinAddr: 0x100008478, symSize: 0x28 }
  - { offsetInCU: 0x32ED0, offset: 0x32ED0, size: 0x8, addend: 0x0, symName: __ZNSt12_Vector_baseIiSaIiEE11_M_allocateEm, symObjAddr: 0x62B0, symBinAddr: 0x1000083F8, symSize: 0x50 }
  - { offsetInCU: 0x32ED8, offset: 0x32ED8, size: 0x8, addend: 0x0, symName: __ZSt22__uninitialized_copy_aIPKiPiiET0_T_S4_S3_RSaIT1_E, symObjAddr: 0x6300, symBinAddr: 0x100008448, symSize: 0x30 }
  - { offsetInCU: 0x32F48, offset: 0x32F48, size: 0x8, addend: 0x0, symName: __ZNSt6vectorIiSaIiEE17_S_check_init_lenEmRKS0_, symObjAddr: 0x622C, symBinAddr: 0x100008374, symSize: 0x84 }
  - { offsetInCU: 0x32F50, offset: 0x32F50, size: 0x8, addend: 0x0, symName: __ZNSt12_Vector_baseIiSaIiEE11_M_allocateEm, symObjAddr: 0x62B0, symBinAddr: 0x1000083F8, symSize: 0x50 }
  - { offsetInCU: 0x33098, offset: 0x33098, size: 0x8, addend: 0x0, symName: __ZNKSt16initializer_listIiE4sizeEv, symObjAddr: 0x6214, symBinAddr: 0x10000835C, symSize: 0x18 }
  - { offsetInCU: 0x330A0, offset: 0x330A0, size: 0x8, addend: 0x0, symName: __ZNSt6vectorIiSaIiEE17_S_check_init_lenEmRKS0_, symObjAddr: 0x622C, symBinAddr: 0x100008374, symSize: 0x84 }
  - { offsetInCU: 0x33125, offset: 0x33125, size: 0x8, addend: 0x0, symName: __ZNSt12_Vector_baseIiSaIiEE12_Vector_implC1ERKS0_, symObjAddr: 0x61C8, symBinAddr: 0x100008310, symSize: 0x4C }
  - { offsetInCU: 0x3312D, offset: 0x3312D, size: 0x8, addend: 0x0, symName: __ZNKSt16initializer_listIiE4sizeEv, symObjAddr: 0x6214, symBinAddr: 0x10000835C, symSize: 0x18 }
  - { offsetInCU: 0x331D7, offset: 0x331D7, size: 0x8, addend: 0x0, symName: __ZNK9__gnu_cxx17__normal_iteratorIPSt4pairISt6vectorIfSaIfEEiES2_IS5_SaIS5_EEE4baseEv, symObjAddr: 0x61B4, symBinAddr: 0x1000082FC, symSize: 0x14 }
  - { offsetInCU: 0x331DF, offset: 0x331DF, size: 0x8, addend: 0x0, symName: __ZNSt12_Vector_baseIiSaIiEE12_Vector_implC1ERKS0_, symObjAddr: 0x61C8, symBinAddr: 0x100008310, symSize: 0x4C }
  - { offsetInCU: 0x33206, offset: 0x33206, size: 0x8, addend: 0x0, symName: __ZNSt6vectorISt4pairIS_IfSaIfEEiESaIS3_EE11_S_relocateEPS3_S6_S6_RS4_, symObjAddr: 0x6180, symBinAddr: 0x1000082C8, symSize: 0x34 }
  - { offsetInCU: 0x3320E, offset: 0x3320E, size: 0x8, addend: 0x0, symName: __ZNK9__gnu_cxx17__normal_iteratorIPSt4pairISt6vectorIfSaIfEEiES2_IS5_SaIS5_EEE4baseEv, symObjAddr: 0x61B4, symBinAddr: 0x1000082FC, symSize: 0x14 }
  - { offsetInCU: 0x33274, offset: 0x33274, size: 0x8, addend: 0x0, symName: __ZNSt12_Vector_baseISt4pairISt6vectorIfSaIfEEiESaIS4_EE11_M_allocateEm, symObjAddr: 0x6130, symBinAddr: 0x100008278, symSize: 0x50 }
  - { offsetInCU: 0x3327C, offset: 0x3327C, size: 0x8, addend: 0x0, symName: __ZNSt6vectorISt4pairIS_IfSaIfEEiESaIS3_EE11_S_relocateEPS3_S6_S6_RS4_, symObjAddr: 0x6180, symBinAddr: 0x1000082C8, symSize: 0x34 }
  - { offsetInCU: 0x333C8, offset: 0x333C8, size: 0x8, addend: 0x0, symName: __ZN9__gnu_cxxmiIPSt4pairISt6vectorIfSaIfEEiES2_IS5_SaIS5_EEEENS_17__normal_iteratorIT_T0_E15difference_typeERKSC_SF_, symObjAddr: 0x60F0, symBinAddr: 0x100008238, symSize: 0x40 }
  - { offsetInCU: 0x333D0, offset: 0x333D0, size: 0x8, addend: 0x0, symName: __ZNSt12_Vector_baseISt4pairISt6vectorIfSaIfEEiESaIS4_EE11_M_allocateEm, symObjAddr: 0x6130, symBinAddr: 0x100008278, symSize: 0x50 }
  - { offsetInCU: 0x33363, offset: 0x33363, size: 0x8, addend: 0x0, symName: __ZNSt6vectorISt4pairIS_IfSaIfEEiESaIS3_EE5beginEv, symObjAddr: 0x60CC, symBinAddr: 0x100008214, symSize: 0x24 }
  - { offsetInCU: 0x3336B, offset: 0x3336B, size: 0x8, addend: 0x0, symName: __ZN9__gnu_cxxmiIPSt4pairISt6vectorIfSaIfEEiES2_IS5_SaIS5_EEEENS_17__normal_iteratorIT_T0_E15difference_typeERKSC_SF_, symObjAddr: 0x60F0, symBinAddr: 0x100008238, symSize: 0x40 }
  - { offsetInCU: 0x33392, offset: 0x33392, size: 0x8, addend: 0x0, symName: __ZNKSt6vectorISt4pairIS_IfSaIfEEiESaIS3_EE12_M_check_lenEmPKc, symObjAddr: 0x5FFC, symBinAddr: 0x100008144, symSize: 0xD0 }
  - { offsetInCU: 0x3339A, offset: 0x3339A, size: 0x8, addend: 0x0, symName: __ZNSt6vectorISt4pairIS_IfSaIfEEiESaIS3_EE5beginEv, symObjAddr: 0x60CC, symBinAddr: 0x100008214, symSize: 0x24 }
  - { offsetInCU: 0x33480, offset: 0x33480, size: 0x8, addend: 0x0, symName: __ZN9__gnu_cxx17__normal_iteratorIPSt4pairISt6vectorIfSaIfEEiES2_IS5_SaIS5_EEEC1ERKS6_, symObjAddr: 0x5FD4, symBinAddr: 0x10000811C, symSize: 0x28 }
  - { offsetInCU: 0x33488, offset: 0x33488, size: 0x8, addend: 0x0, symName: __ZNKSt6vectorISt4pairIS_IfSaIfEEiESaIS3_EE12_M_check_lenEmPKc, symObjAddr: 0x5FFC, symBinAddr: 0x100008144, symSize: 0xD0 }
  - { offsetInCU: 0x33509, offset: 0x33509, size: 0x8, addend: 0x0, symName: __ZNSt4pairISt6vectorIfSaIfEEiEC1ERKS3_, symObjAddr: 0x5F9C, symBinAddr: 0x1000080E4, symSize: 0x38 }
  - { offsetInCU: 0x33511, offset: 0x33511, size: 0x8, addend: 0x0, symName: __ZN9__gnu_cxx17__normal_iteratorIPSt4pairISt6vectorIfSaIfEEiES2_IS5_SaIS5_EEEC1ERKS6_, symObjAddr: 0x5FD4, symBinAddr: 0x10000811C, symSize: 0x28 }
  - { offsetInCU: 0x335A6, offset: 0x335A6, size: 0x8, addend: 0x0, symName: __ZSt7forwardIRKSt4pairISt6vectorIfSaIfEEiEEOT_RNSt16remove_referenceIS7_E4typeE, symObjAddr: 0x5F88, symBinAddr: 0x1000080D0, symSize: 0x14 }
  - { offsetInCU: 0x335AE, offset: 0x335AE, size: 0x8, addend: 0x0, symName: __ZNSt4pairISt6vectorIfSaIfEEiEC1ERKS3_, symObjAddr: 0x5F9C, symBinAddr: 0x1000080E4, symSize: 0x38 }
  - { offsetInCU: 0x335B7, offset: 0x335B7, size: 0x8, addend: 0x0, symName: __ZNSt12_Vector_baseIfSaIfEE17_Vector_impl_data12_M_swap_dataERS2_, symObjAddr: 0x5F3C, symBinAddr: 0x100008084, symSize: 0x4C }
  - { offsetInCU: 0x335BF, offset: 0x335BF, size: 0x8, addend: 0x0, symName: __ZSt7forwardIRKSt4pairISt6vectorIfSaIfEEiEEOT_RNSt16remove_referenceIS7_E4typeE, symObjAddr: 0x5F88, symBinAddr: 0x1000080D0, symSize: 0x14 }
  - { offsetInCU: 0x33657, offset: 0x33657, size: 0x8, addend: 0x0, symName: __ZNSt6vectorIfSaIfEEC1ERKS0_, symObjAddr: 0x5F14, symBinAddr: 0x10000805C, symSize: 0x28 }
  - { offsetInCU: 0x3365F, offset: 0x3365F, size: 0x8, addend: 0x0, symName: __ZNSt12_Vector_baseIfSaIfEE17_Vector_impl_data12_M_swap_dataERS2_, symObjAddr: 0x5F3C, symBinAddr: 0x100008084, symSize: 0x4C }
  - { offsetInCU: 0x33677, offset: 0x33677, size: 0x8, addend: 0x0, symName: __ZNKSt12_Vector_baseIfSaIfEE13get_allocatorEv, symObjAddr: 0x5EC4, symBinAddr: 0x10000800C, symSize: 0x50 }
  - { offsetInCU: 0x3367F, offset: 0x3367F, size: 0x8, addend: 0x0, symName: __ZNSt6vectorIfSaIfEEC1ERKS0_, symObjAddr: 0x5F14, symBinAddr: 0x10000805C, symSize: 0x28 }
  - { offsetInCU: 0x3374F, offset: 0x3374F, size: 0x8, addend: 0x0, symName: __ZNSt6vectorIfSaIfEE4backEv, symObjAddr: 0x5E8C, symBinAddr: 0x100007FD4, symSize: 0x38 }
  - { offsetInCU: 0x33757, offset: 0x33757, size: 0x8, addend: 0x0, symName: __ZNKSt12_Vector_baseIfSaIfEE13get_allocatorEv, symObjAddr: 0x5EC4, symBinAddr: 0x10000800C, symSize: 0x50 }
  - { offsetInCU: 0x3377E, offset: 0x3377E, size: 0x8, addend: 0x0, symName: __ZNSt6vectorIfSaIfEE17_M_realloc_insertIJfEEEvN9__gnu_cxx17__normal_iteratorIPfS1_EEDpOT_, symObjAddr: 0x5CCC, symBinAddr: 0x100007E14, symSize: 0x1C0 }
  - { offsetInCU: 0x33786, offset: 0x33786, size: 0x8, addend: 0x0, symName: __ZNSt6vectorIfSaIfEE4backEv, symObjAddr: 0x5E8C, symBinAddr: 0x100007FD4, symSize: 0x38 }
  - { offsetInCU: 0x338E7, offset: 0x338E7, size: 0x8, addend: 0x0, symName: __ZNSt6vectorIfSaIfEE3endEv, symObjAddr: 0x5CA4, symBinAddr: 0x100007DEC, symSize: 0x28 }
  - { offsetInCU: 0x338EF, offset: 0x338EF, size: 0x8, addend: 0x0, symName: __ZNSt6vectorIfSaIfEE17_M_realloc_insertIJfEEEvN9__gnu_cxx17__normal_iteratorIPfS1_EEDpOT_, symObjAddr: 0x5CCC, symBinAddr: 0x100007E14, symSize: 0x1C0 }
  - { offsetInCU: 0x339B9, offset: 0x339B9, size: 0x8, addend: 0x0, symName: __ZSt7forwardIfEOT_RNSt16remove_referenceIS0_E4typeE, symObjAddr: 0x5C90, symBinAddr: 0x100007DD8, symSize: 0x14 }
  - { offsetInCU: 0x339C1, offset: 0x339C1, size: 0x8, addend: 0x0, symName: __ZNSt6vectorIfSaIfEE3endEv, symObjAddr: 0x5CA4, symBinAddr: 0x100007DEC, symSize: 0x28 }
  - { offsetInCU: 0x339F1, offset: 0x339F1, size: 0x8, addend: 0x0, symName: __ZSt8_DestroyIPfEvT_S1_, symObjAddr: 0x5C68, symBinAddr: 0x100007DB0, symSize: 0x28 }
  - { offsetInCU: 0x339F9, offset: 0x339F9, size: 0x8, addend: 0x0, symName: __ZSt7forwardIfEOT_RNSt16remove_referenceIS0_E4typeE, symObjAddr: 0x5C90, symBinAddr: 0x100007DD8, symSize: 0x14 }
  - { offsetInCU: 0x33B43, offset: 0x33B43, size: 0x8, addend: 0x0, symName: __ZSt8_DestroyIPSt4pairISt6vectorIfSaIfEEiEEvT_S6_, symObjAddr: 0x5C40, symBinAddr: 0x100007D88, symSize: 0x28 }
  - { offsetInCU: 0x33B4B, offset: 0x33B4B, size: 0x8, addend: 0x0, symName: __ZSt8_DestroyIPfEvT_S1_, symObjAddr: 0x5C68, symBinAddr: 0x100007DB0, symSize: 0x28 }
  - { offsetInCU: 0x33C10, offset: 0x33C10, size: 0x8, addend: 0x0, symName: __ZSt18uninitialized_copyIN9__gnu_cxx17__normal_iteratorIPKhSt6vectorIhSaIhEEEEPhET0_T_SA_S9_, symObjAddr: 0x5C04, symBinAddr: 0x100007D4C, symSize: 0x3C }
  - { offsetInCU: 0x33C18, offset: 0x33C18, size: 0x8, addend: 0x0, symName: __ZSt8_DestroyIPSt4pairISt6vectorIfSaIfEEiEEvT_S6_, symObjAddr: 0x5C40, symBinAddr: 0x100007D88, symSize: 0x28 }
  - { offsetInCU: 0x33C4E, offset: 0x33C4E, size: 0x8, addend: 0x0, symName: __ZN9__gnu_cxx17__normal_iteratorIPKhSt6vectorIhSaIhEEEC1ERKS2_, symObjAddr: 0x5BDC, symBinAddr: 0x100007D24, symSize: 0x28 }
  - { offsetInCU: 0x33C56, offset: 0x33C56, size: 0x8, addend: 0x0, symName: __ZSt18uninitialized_copyIN9__gnu_cxx17__normal_iteratorIPKhSt6vectorIhSaIhEEEEPhET0_T_SA_S9_, symObjAddr: 0x5C04, symBinAddr: 0x100007D4C, symSize: 0x3C }
  - { offsetInCU: 0x33C4C, offset: 0x33C4C, size: 0x8, addend: 0x0, symName: __ZNSt12_Vector_baseIhSaIhEE17_M_create_storageEm, symObjAddr: 0x5B80, symBinAddr: 0x100007CC8, symSize: 0x5C }
  - { offsetInCU: 0x33C54, offset: 0x33C54, size: 0x8, addend: 0x0, symName: __ZN9__gnu_cxx17__normal_iteratorIPKhSt6vectorIhSaIhEEEC1ERKS2_, symObjAddr: 0x5BDC, symBinAddr: 0x100007D24, symSize: 0x28 }
  - { offsetInCU: 0x33CED, offset: 0x33CED, size: 0x8, addend: 0x0, symName: __ZNSt12_Vector_baseIhSaIhEE12_Vector_implC1ERKS0_, symObjAddr: 0x5B34, symBinAddr: 0x100007C7C, symSize: 0x4C }
  - { offsetInCU: 0x33CF5, offset: 0x33CF5, size: 0x8, addend: 0x0, symName: __ZNSt12_Vector_baseIhSaIhEE17_M_create_storageEm, symObjAddr: 0x5B80, symBinAddr: 0x100007CC8, symSize: 0x5C }
  - { offsetInCU: 0x33DAA, offset: 0x33DAA, size: 0x8, addend: 0x0, symName: __ZNSt15__new_allocatorIhED2Ev, symObjAddr: 0x5B20, symBinAddr: 0x100007C68, symSize: 0x14 }
  - { offsetInCU: 0x33DB2, offset: 0x33DB2, size: 0x8, addend: 0x0, symName: __ZNSt12_Vector_baseIhSaIhEE12_Vector_implC1ERKS0_, symObjAddr: 0x5B34, symBinAddr: 0x100007C7C, symSize: 0x4C }
  - { offsetInCU: 0x33EE7, offset: 0x33EE7, size: 0x8, addend: 0x0, symName: __ZSt18uninitialized_copyIN9__gnu_cxx17__normal_iteratorIPKSt6vectorIhSaIhEES2_IS4_SaIS4_EEEEPS4_ET0_T_SC_SB_, symObjAddr: 0x5AEC, symBinAddr: 0x100007C34, symSize: 0x34 }
  - { offsetInCU: 0x33EEF, offset: 0x33EEF, size: 0x8, addend: 0x0, symName: __ZNSt15__new_allocatorIhED2Ev, symObjAddr: 0x5B20, symBinAddr: 0x100007C68, symSize: 0x14 }
  - { offsetInCU: 0x33EFB, offset: 0x33EFB, size: 0x8, addend: 0x0, symName: __ZN9__gnu_cxx17__normal_iteratorIPKSt6vectorIhSaIhEES1_IS3_SaIS3_EEEC1ERKS5_, symObjAddr: 0x5AC4, symBinAddr: 0x100007C0C, symSize: 0x28 }
  - { offsetInCU: 0x33F03, offset: 0x33F03, size: 0x8, addend: 0x0, symName: __ZSt18uninitialized_copyIN9__gnu_cxx17__normal_iteratorIPKSt6vectorIhSaIhEES2_IS4_SaIS4_EEEEPS4_ET0_T_SC_SB_, symObjAddr: 0x5AEC, symBinAddr: 0x100007C34, symSize: 0x34 }
  - { offsetInCU: 0x33EEB, offset: 0x33EEB, size: 0x8, addend: 0x0, symName: __ZNSt12_Vector_baseISt6vectorIhSaIhEESaIS2_EE17_M_create_storageEm, symObjAddr: 0x5A58, symBinAddr: 0x100007BA0, symSize: 0x6C }
  - { offsetInCU: 0x33EF3, offset: 0x33EF3, size: 0x8, addend: 0x0, symName: __ZN9__gnu_cxx17__normal_iteratorIPKSt6vectorIhSaIhEES1_IS3_SaIS3_EEEC1ERKS5_, symObjAddr: 0x5AC4, symBinAddr: 0x100007C0C, symSize: 0x28 }
  - { offsetInCU: 0x33F9E, offset: 0x33F9E, size: 0x8, addend: 0x0, symName: __ZNSt12_Vector_baseISt6vectorIhSaIhEESaIS2_EE12_Vector_implC1ERKS3_, symObjAddr: 0x5A0C, symBinAddr: 0x100007B54, symSize: 0x4C }
  - { offsetInCU: 0x33FA6, offset: 0x33FA6, size: 0x8, addend: 0x0, symName: __ZNSt12_Vector_baseISt6vectorIhSaIhEESaIS2_EE17_M_create_storageEm, symObjAddr: 0x5A58, symBinAddr: 0x100007BA0, symSize: 0x6C }
  - { offsetInCU: 0x34059, offset: 0x34059, size: 0x8, addend: 0x0, symName: __ZNSt15__new_allocatorISt6vectorIhSaIhEEED2Ev, symObjAddr: 0x59F8, symBinAddr: 0x100007B40, symSize: 0x14 }
  - { offsetInCU: 0x34061, offset: 0x34061, size: 0x8, addend: 0x0, symName: __ZNSt12_Vector_baseISt6vectorIhSaIhEESaIS2_EE12_Vector_implC1ERKS3_, symObjAddr: 0x5A0C, symBinAddr: 0x100007B54, symSize: 0x4C }
  - { offsetInCU: 0x340AA, offset: 0x340AA, size: 0x8, addend: 0x0, symName: __ZSt8_DestroyIPhEvT_S1_, symObjAddr: 0x59D0, symBinAddr: 0x100007B18, symSize: 0x28 }
  - { offsetInCU: 0x340B2, offset: 0x340B2, size: 0x8, addend: 0x0, symName: __ZNSt15__new_allocatorISt6vectorIhSaIhEEED2Ev, symObjAddr: 0x59F8, symBinAddr: 0x100007B40, symSize: 0x14 }
  - { offsetInCU: 0x340D1, offset: 0x340D1, size: 0x8, addend: 0x0, symName: __ZNSt12_Vector_baseIhSaIhEE13_M_deallocateEPhm, symObjAddr: 0x5978, symBinAddr: 0x100007AC0, symSize: 0x58 }
  - { offsetInCU: 0x340D9, offset: 0x340D9, size: 0x8, addend: 0x0, symName: __ZSt8_DestroyIPhEvT_S1_, symObjAddr: 0x59D0, symBinAddr: 0x100007B18, symSize: 0x28 }
  - { offsetInCU: 0x341B8, offset: 0x341B8, size: 0x8, addend: 0x0, symName: __ZSt8_DestroyIPSt6vectorIhSaIhEEEvT_S4_, symObjAddr: 0x5950, symBinAddr: 0x100007A98, symSize: 0x28 }
  - { offsetInCU: 0x341C0, offset: 0x341C0, size: 0x8, addend: 0x0, symName: __ZNSt12_Vector_baseIhSaIhEE13_M_deallocateEPhm, symObjAddr: 0x5978, symBinAddr: 0x100007AC0, symSize: 0x58 }
  - { offsetInCU: 0x341C2, offset: 0x341C2, size: 0x8, addend: 0x0, symName: __ZNSt12_Vector_baseISt6vectorIhSaIhEESaIS2_EE13_M_deallocateEPS2_m, symObjAddr: 0x58F8, symBinAddr: 0x100007A40, symSize: 0x58 }
  - { offsetInCU: 0x341CA, offset: 0x341CA, size: 0x8, addend: 0x0, symName: __ZSt8_DestroyIPSt6vectorIhSaIhEEEvT_S4_, symObjAddr: 0x5950, symBinAddr: 0x100007A98, symSize: 0x28 }
  - { offsetInCU: 0x342B8, offset: 0x342B8, size: 0x8, addend: 0x0, symName: __ZNSt12_Vector_baseIhSaIhEE12_Vector_implC1EOS2_, symObjAddr: 0x588C, symBinAddr: 0x1000079D4, symSize: 0x6C }
  - { offsetInCU: 0x342C0, offset: 0x342C0, size: 0x8, addend: 0x0, symName: __ZNSt12_Vector_baseISt6vectorIhSaIhEESaIS2_EE13_M_deallocateEPS2_m, symObjAddr: 0x58F8, symBinAddr: 0x100007A40, symSize: 0x58 }
  - { offsetInCU: 0x343C9, offset: 0x343C9, size: 0x8, addend: 0x0, symName: __ZN5mnist16read_test_labelsISt6vectorhEET_IJT0_EERKNSt7__cxx1112basic_stringIcSt11char_traitsIcESaIcEEEm, symObjAddr: 0x5800, symBinAddr: 0x100007948, symSize: 0x8C }
  - { offsetInCU: 0x343D1, offset: 0x343D1, size: 0x8, addend: 0x0, symName: __ZNSt12_Vector_baseIhSaIhEE12_Vector_implC1EOS2_, symObjAddr: 0x588C, symBinAddr: 0x1000079D4, symSize: 0x6C }
  - { offsetInCU: 0x3452D, offset: 0x3452D, size: 0x8, addend: 0x0, symName: __ZN5mnist16read_test_imagesISt6vectorS1_IhSaIhEEZNS_19read_dataset_directIS1_S3_hEENS_13MNIST_datasetIT_T0_T1_EERKNSt7__cxx1112basic_stringIcSt11char_traitsIcESaIcEEEmmEUlvE0_EET_IJS7_EESH_mS8_, symObjAddr: 0x576C, symBinAddr: 0x1000078B4, symSize: 0x94 }
  - { offsetInCU: 0x34535, offset: 0x34535, size: 0x8, addend: 0x0, symName: __ZN5mnist16read_test_labelsISt6vectorhEET_IJT0_EERKNSt7__cxx1112basic_stringIcSt11char_traitsIcESaIcEEEm, symObjAddr: 0x5800, symBinAddr: 0x100007948, symSize: 0x8C }
  - { offsetInCU: 0x34449, offset: 0x34449, size: 0x8, addend: 0x0, symName: __ZNSt6vectorIhSaIhEEaSEOS1_, symObjAddr: 0x5728, symBinAddr: 0x100007870, symSize: 0x44 }
  - { offsetInCU: 0x34451, offset: 0x34451, size: 0x8, addend: 0x0, symName: __ZN5mnist16read_test_imagesISt6vectorS1_IhSaIhEEZNS_19read_dataset_directIS1_S3_hEENS_13MNIST_datasetIT_T0_T1_EERKNSt7__cxx1112basic_stringIcSt11char_traitsIcESaIcEEEmmEUlvE0_EET_IJS7_EESH_mS8_, symObjAddr: 0x576C, symBinAddr: 0x1000078B4, symSize: 0x94 }
  - { offsetInCU: 0x34543, offset: 0x34543, size: 0x8, addend: 0x0, symName: __ZN5mnist20read_training_labelsISt6vectorhEET_IJT0_EERKNSt7__cxx1112basic_stringIcSt11char_traitsIcESaIcEEEm, symObjAddr: 0x569C, symBinAddr: 0x1000077E4, symSize: 0x8C }
  - { offsetInCU: 0x3454B, offset: 0x3454B, size: 0x8, addend: 0x0, symName: __ZNSt6vectorIhSaIhEEaSEOS1_, symObjAddr: 0x5728, symBinAddr: 0x100007870, symSize: 0x44 }
  - { offsetInCU: 0x3451D, offset: 0x3451D, size: 0x8, addend: 0x0, symName: __ZNSt6vectorIS_IhSaIhEESaIS1_EEaSEOS3_, symObjAddr: 0x5658, symBinAddr: 0x1000077A0, symSize: 0x44 }
  - { offsetInCU: 0x34525, offset: 0x34525, size: 0x8, addend: 0x0, symName: __ZN5mnist20read_training_labelsISt6vectorhEET_IJT0_EERKNSt7__cxx1112basic_stringIcSt11char_traitsIcESaIcEEEm, symObjAddr: 0x569C, symBinAddr: 0x1000077E4, symSize: 0x8C }
  - { offsetInCU: 0x346FD, offset: 0x346FD, size: 0x8, addend: 0x0, symName: __ZN5mnist20read_training_imagesISt6vectorS1_IhSaIhEEZNS_19read_dataset_directIS1_S3_hEENS_13MNIST_datasetIT_T0_T1_EERKNSt7__cxx1112basic_stringIcSt11char_traitsIcESaIcEEEmmEUlvE_EET_IJS7_EESH_mS8_, symObjAddr: 0x55C4, symBinAddr: 0x10000770C, symSize: 0x94 }
  - { offsetInCU: 0x34705, offset: 0x34705, size: 0x8, addend: 0x0, symName: __ZNSt6vectorIS_IhSaIhEESaIS1_EEaSEOS3_, symObjAddr: 0x5658, symBinAddr: 0x1000077A0, symSize: 0x44 }
  - { offsetInCU: 0x3466F, offset: 0x3466F, size: 0x8, addend: 0x0, symName: __ZNSt6vectorIhSaIhEEC1EmRKS0_, symObjAddr: 0x555C, symBinAddr: 0x1000076A4, symSize: 0x68 }
  - { offsetInCU: 0x34677, offset: 0x34677, size: 0x8, addend: 0x0, symName: __ZN5mnist20read_training_imagesISt6vectorS1_IhSaIhEEZNS_19read_dataset_directIS1_S3_hEENS_13MNIST_datasetIT_T0_T1_EERKNSt7__cxx1112basic_stringIcSt11char_traitsIcESaIcEEEmmEUlvE_EET_IJS7_EESH_mS8_, symObjAddr: 0x55C4, symBinAddr: 0x10000770C, symSize: 0x94 }
  - { offsetInCU: 0x346FF, offset: 0x346FF, size: 0x8, addend: 0x0, symName: __ZNSt12_Vector_baseIhSaIhEE12_Vector_implC1Ev, symObjAddr: 0x5524, symBinAddr: 0x10000766C, symSize: 0x38 }
  - { offsetInCU: 0x34707, offset: 0x34707, size: 0x8, addend: 0x0, symName: __ZNSt6vectorIhSaIhEEC1EmRKS0_, symObjAddr: 0x555C, symBinAddr: 0x1000076A4, symSize: 0x68 }
  - { offsetInCU: 0x347AC, offset: 0x347AC, size: 0x8, addend: 0x0, symName: __ZNSt12_Vector_baseISt6vectorIhSaIhEESaIS2_EE12_Vector_implC1Ev, symObjAddr: 0x54EC, symBinAddr: 0x100007634, symSize: 0x38 }
  - { offsetInCU: 0x347B4, offset: 0x347B4, size: 0x8, addend: 0x0, symName: __ZNSt12_Vector_baseIhSaIhEE12_Vector_implC1Ev, symObjAddr: 0x5524, symBinAddr: 0x10000766C, symSize: 0x38 }
  - { offsetInCU: 0x347EC, offset: 0x347EC, size: 0x8, addend: 0x0, symName: __ZNSt15__uniq_ptr_implIcSt14default_deleteIA_cEE10_M_deleterEv, symObjAddr: 0x54D0, symBinAddr: 0x100007618, symSize: 0x1C }
  - { offsetInCU: 0x347F4, offset: 0x347F4, size: 0x8, addend: 0x0, symName: __ZNSt12_Vector_baseISt6vectorIhSaIhEESaIS2_EE12_Vector_implC1Ev, symObjAddr: 0x54EC, symBinAddr: 0x100007634, symSize: 0x38 }
  - { offsetInCU: 0x3489C, offset: 0x3489C, size: 0x8, addend: 0x0, symName: __ZSt3getILm0EJPcSt14default_deleteIA_cEEERNSt13tuple_elementIXT_ESt5tupleIJDpT0_EEE4typeERS8_, symObjAddr: 0x54B4, symBinAddr: 0x1000075FC, symSize: 0x1C }
  - { offsetInCU: 0x348A4, offset: 0x348A4, size: 0x8, addend: 0x0, symName: __ZNSt15__uniq_ptr_implIcSt14default_deleteIA_cEE10_M_deleterEv, symObjAddr: 0x54D0, symBinAddr: 0x100007618, symSize: 0x1C }
  - { offsetInCU: 0x348F6, offset: 0x348F6, size: 0x8, addend: 0x0, symName: __ZNSt11_Tuple_implILm0EJPcSt14default_deleteIA_cEEEC2Ev, symObjAddr: 0x548C, symBinAddr: 0x1000075D4, symSize: 0x28 }
  - { offsetInCU: 0x348FE, offset: 0x348FE, size: 0x8, addend: 0x0, symName: __ZSt3getILm0EJPcSt14default_deleteIA_cEEERNSt13tuple_elementIXT_ESt5tupleIJDpT0_EEE4typeERS8_, symObjAddr: 0x54B4, symBinAddr: 0x1000075FC, symSize: 0x1C }
  - { offsetInCU: 0x34958, offset: 0x34958, size: 0x8, addend: 0x0, symName: __ZSt3getILm0EJPcSt14default_deleteIA_cEEERKNSt13tuple_elementIXT_ESt5tupleIJDpT0_EEE4typeERKS8_, symObjAddr: 0x5470, symBinAddr: 0x1000075B8, symSize: 0x1C }
  - { offsetInCU: 0x34960, offset: 0x34960, size: 0x8, addend: 0x0, symName: __ZNSt11_Tuple_implILm0EJPcSt14default_deleteIA_cEEEC2Ev, symObjAddr: 0x548C, symBinAddr: 0x1000075D4, symSize: 0x28 }
  - { offsetInCU: 0x349EE, offset: 0x349EE, size: 0x8, addend: 0x0, symName: __ZNKSt6vectorIfSaIfEE11_M_data_ptrIfEEPT_S4_, symObjAddr: 0x5458, symBinAddr: 0x1000075A0, symSize: 0x18 }
  - { offsetInCU: 0x349F6, offset: 0x349F6, size: 0x8, addend: 0x0, symName: __ZSt3getILm0EJPcSt14default_deleteIA_cEEERKNSt13tuple_elementIXT_ESt5tupleIJDpT0_EEE4typeERKS8_, symObjAddr: 0x5470, symBinAddr: 0x1000075B8, symSize: 0x1C }
  - { offsetInCU: 0x34BA6, offset: 0x34BA6, size: 0x8, addend: 0x0, symName: __ZSt22__uninitialized_copy_aIN9__gnu_cxx17__normal_iteratorIPKSt4pairISt6vectorIfSaIfEEiES3_IS6_SaIS6_EEEEPS6_S6_ET0_T_SE_SD_RSaIT1_E, symObjAddr: 0x5428, symBinAddr: 0x100007570, symSize: 0x30 }
  - { offsetInCU: 0x34BAE, offset: 0x34BAE, size: 0x8, addend: 0x0, symName: __ZNKSt6vectorIfSaIfEE11_M_data_ptrIfEEPT_S4_, symObjAddr: 0x5458, symBinAddr: 0x1000075A0, symSize: 0x18 }
  - { offsetInCU: 0x34AD9, offset: 0x34AD9, size: 0x8, addend: 0x0, symName: __ZNKSt6vectorISt4pairIS_IfSaIfEEiESaIS3_EE3endEv, symObjAddr: 0x5400, symBinAddr: 0x100007548, symSize: 0x28 }
  - { offsetInCU: 0x34AE1, offset: 0x34AE1, size: 0x8, addend: 0x0, symName: __ZSt22__uninitialized_copy_aIN9__gnu_cxx17__normal_iteratorIPKSt4pairISt6vectorIfSaIfEEiES3_IS6_SaIS6_EEEEPS6_S6_ET0_T_SE_SD_RSaIT1_E, symObjAddr: 0x5428, symBinAddr: 0x100007570, symSize: 0x30 }
  - { offsetInCU: 0x34B08, offset: 0x34B08, size: 0x8, addend: 0x0, symName: __ZNKSt6vectorISt4pairIS_IfSaIfEEiESaIS3_EE5beginEv, symObjAddr: 0x53DC, symBinAddr: 0x100007524, symSize: 0x24 }
  - { offsetInCU: 0x34B10, offset: 0x34B10, size: 0x8, addend: 0x0, symName: __ZNKSt6vectorISt4pairIS_IfSaIfEEiESaIS3_EE3endEv, symObjAddr: 0x5400, symBinAddr: 0x100007548, symSize: 0x28 }
  - { offsetInCU: 0x34BB7, offset: 0x34BB7, size: 0x8, addend: 0x0, symName: __ZNSt12_Vector_baseISt4pairISt6vectorIfSaIfEEiESaIS4_EEC2EmRKS5_, symObjAddr: 0x5388, symBinAddr: 0x1000074D0, symSize: 0x54 }
  - { offsetInCU: 0x34BBF, offset: 0x34BBF, size: 0x8, addend: 0x0, symName: __ZNKSt6vectorISt4pairIS_IfSaIfEEiESaIS3_EE5beginEv, symObjAddr: 0x53DC, symBinAddr: 0x100007524, symSize: 0x24 }
  - { offsetInCU: 0x34BDD, offset: 0x34BDD, size: 0x8, addend: 0x0, symName: __ZNKSt12_Vector_baseISt4pairISt6vectorIfSaIfEEiESaIS4_EE19_M_get_Tp_allocatorEv, symObjAddr: 0x5374, symBinAddr: 0x1000074BC, symSize: 0x14 }
  - { offsetInCU: 0x34BE5, offset: 0x34BE5, size: 0x8, addend: 0x0, symName: __ZNSt12_Vector_baseISt4pairISt6vectorIfSaIfEEiESaIS4_EEC2EmRKS5_, symObjAddr: 0x5388, symBinAddr: 0x1000074D0, symSize: 0x54 }
  - { offsetInCU: 0x34C0C, offset: 0x34C0C, size: 0x8, addend: 0x0, symName: __ZNSt6vectorIiSaIiEE13_M_assign_auxIPKiEEvT_S5_St20forward_iterator_tag, symObjAddr: 0x5124, symBinAddr: 0x10000726C, symSize: 0x250 }
  - { offsetInCU: 0x34C14, offset: 0x34C14, size: 0x8, addend: 0x0, symName: __ZNKSt12_Vector_baseISt4pairISt6vectorIfSaIfEEiESaIS4_EE19_M_get_Tp_allocatorEv, symObjAddr: 0x5374, symBinAddr: 0x1000074BC, symSize: 0x14 }
  - { offsetInCU: 0x34E41, offset: 0x34E41, size: 0x8, addend: 0x0, symName: __ZNSt12_Vector_baseIiSaIiEE13_M_deallocateEPim, symObjAddr: 0x50CC, symBinAddr: 0x100007214, symSize: 0x58 }
  - { offsetInCU: 0x34E49, offset: 0x34E49, size: 0x8, addend: 0x0, symName: __ZNSt6vectorIiSaIiEE13_M_assign_auxIPKiEEvT_S5_St20forward_iterator_tag, symObjAddr: 0x5124, symBinAddr: 0x10000726C, symSize: 0x250 }
  - { offsetInCU: 0x34F28, offset: 0x34F28, size: 0x8, addend: 0x0, symName: __ZNSt12_Vector_baseIiSaIiEE17_Vector_impl_dataC2Ev, symObjAddr: 0x50A0, symBinAddr: 0x1000071E8, symSize: 0x2C }
  - { offsetInCU: 0x34F30, offset: 0x34F30, size: 0x8, addend: 0x0, symName: __ZNSt12_Vector_baseIiSaIiEE13_M_deallocateEPim, symObjAddr: 0x50CC, symBinAddr: 0x100007214, symSize: 0x58 }
  - { offsetInCU: 0x34F25, offset: 0x34F25, size: 0x8, addend: 0x0, symName: __ZNSt25uniform_real_distributionIfEclISt23mersenne_twister_engineIjLm32ELm624ELm397ELm31ELj2567483615ELm11ELj4294967295ELm7ELj2636928640ELm15ELj4022730752ELm18ELj1812433253EEEEfRT_RKNS0_10param_typeE, symObjAddr: 0x503C, symBinAddr: 0x100007184, symSize: 0x64 }
  - { offsetInCU: 0x34F2D, offset: 0x34F2D, size: 0x8, addend: 0x0, symName: __ZNSt12_Vector_baseIiSaIiEE17_Vector_impl_dataC2Ev, symObjAddr: 0x50A0, symBinAddr: 0x1000071E8, symSize: 0x2C }
  - { offsetInCU: 0x35011, offset: 0x35011, size: 0x8, addend: 0x0, symName: __ZNSt25uniform_real_distributionIfE10param_typeC1Eff, symObjAddr: 0x4FAC, symBinAddr: 0x1000070F4, symSize: 0x90 }
  - { offsetInCU: 0x35019, offset: 0x35019, size: 0x8, addend: 0x0, symName: __ZNSt25uniform_real_distributionIfEclISt23mersenne_twister_engineIjLm32ELm624ELm397ELm31ELj2567483615ELm11ELj4294967295ELm7ELj2636928640ELm15ELj4022730752ELm18ELj1812433253EEEEfRT_RKNS0_10param_typeE, symObjAddr: 0x503C, symBinAddr: 0x100007184, symSize: 0x64 }
  - { offsetInCU: 0x3502B, offset: 0x3502B, size: 0x8, addend: 0x0, symName: __ZNSt23mersenne_twister_engineIjLm32ELm624ELm397ELm31ELj2567483615ELm11ELj4294967295ELm7ELj2636928640ELm15ELj4022730752ELm18ELj1812433253EE4seedEj, symObjAddr: 0x4EE0, symBinAddr: 0x100007028, symSize: 0xCC }
  - { offsetInCU: 0x35033, offset: 0x35033, size: 0x8, addend: 0x0, symName: __ZNSt25uniform_real_distributionIfE10param_typeC1Eff, symObjAddr: 0x4FAC, symBinAddr: 0x1000070F4, symSize: 0x90 }
  - { offsetInCU: 0x35112, offset: 0x35112, size: 0x8, addend: 0x0, symName: __ZNSt12_Vector_baseIiSaIiEE19_M_get_Tp_allocatorEv, symObjAddr: 0x4ECC, symBinAddr: 0x100007014, symSize: 0x14 }
  - { offsetInCU: 0x3511A, offset: 0x3511A, size: 0x8, addend: 0x0, symName: __ZNSt23mersenne_twister_engineIjLm32ELm624ELm397ELm31ELj2567483615ELm11ELj4294967295ELm7ELj2636928640ELm15ELj4022730752ELm18ELj1812433253EE4seedEj, symObjAddr: 0x4EE0, symBinAddr: 0x100007028, symSize: 0xCC }
  - { offsetInCU: 0x35141, offset: 0x35141, size: 0x8, addend: 0x0, symName: __ZNSt6vectorIiSaIiEE19_M_range_initializeIPKiEEvT_S5_St20forward_iterator_tag, symObjAddr: 0x4DE8, symBinAddr: 0x100006F30, symSize: 0xE4 }
  - { offsetInCU: 0x35149, offset: 0x35149, size: 0x8, addend: 0x0, symName: __ZNSt12_Vector_baseIiSaIiEE19_M_get_Tp_allocatorEv, symObjAddr: 0x4ECC, symBinAddr: 0x100007014, symSize: 0x14 }
  - { offsetInCU: 0x352AB, offset: 0x352AB, size: 0x8, addend: 0x0, symName: __ZNKSt16initializer_listIiE3endEv, symObjAddr: 0x4DB0, symBinAddr: 0x100006EF8, symSize: 0x38 }
  - { offsetInCU: 0x352B3, offset: 0x352B3, size: 0x8, addend: 0x0, symName: __ZNSt6vectorIiSaIiEE19_M_range_initializeIPKiEEvT_S5_St20forward_iterator_tag, symObjAddr: 0x4DE8, symBinAddr: 0x100006F30, symSize: 0xE4 }
  - { offsetInCU: 0x352DA, offset: 0x352DA, size: 0x8, addend: 0x0, symName: __ZNKSt16initializer_listIiE5beginEv, symObjAddr: 0x4D98, symBinAddr: 0x100006EE0, symSize: 0x18 }
  - { offsetInCU: 0x352E2, offset: 0x352E2, size: 0x8, addend: 0x0, symName: __ZNKSt16initializer_listIiE3endEv, symObjAddr: 0x4DB0, symBinAddr: 0x100006EF8, symSize: 0x38 }
  - { offsetInCU: 0x3535A, offset: 0x3535A, size: 0x8, addend: 0x0, symName: __ZNSt12_Vector_baseIiSaIiEEC2ERKS0_, symObjAddr: 0x4D70, symBinAddr: 0x100006EB8, symSize: 0x28 }
  - { offsetInCU: 0x35362, offset: 0x35362, size: 0x8, addend: 0x0, symName: __ZNKSt16initializer_listIiE5beginEv, symObjAddr: 0x4D98, symBinAddr: 0x100006EE0, symSize: 0x18 }
  - { offsetInCU: 0x353BB, offset: 0x353BB, size: 0x8, addend: 0x0, symName: __ZNSt15__new_allocatorIiED2Ev, symObjAddr: 0x4D5C, symBinAddr: 0x100006EA4, symSize: 0x14 }
  - { offsetInCU: 0x353C3, offset: 0x353C3, size: 0x8, addend: 0x0, symName: __ZNSt12_Vector_baseIiSaIiEEC2ERKS0_, symObjAddr: 0x4D70, symBinAddr: 0x100006EB8, symSize: 0x28 }
  - { offsetInCU: 0x35482, offset: 0x35482, size: 0x8, addend: 0x0, symName: __ZSt7forwardIRSt6vectorISt4pairIS0_IfSaIfEEiESaIS4_EEEOT_RNSt16remove_referenceIS8_E4typeE, symObjAddr: 0x4D48, symBinAddr: 0x100006E90, symSize: 0x14 }
  - { offsetInCU: 0x3548A, offset: 0x3548A, size: 0x8, addend: 0x0, symName: __ZNSt15__new_allocatorIiED2Ev, symObjAddr: 0x4D5C, symBinAddr: 0x100006EA4, symSize: 0x14 }
  - { offsetInCU: 0x3543E, offset: 0x3543E, size: 0x8, addend: 0x0, symName: __ZNSt6vectorISt4pairIS_IfSaIfEEiESaIS3_EE17_M_realloc_insertIJRKS3_EEEvN9__gnu_cxx17__normal_iteratorIPS3_S5_EEDpOT_, symObjAddr: 0x4AB8, symBinAddr: 0x100006C00, symSize: 0x290 }
  - { offsetInCU: 0x35446, offset: 0x35446, size: 0x8, addend: 0x0, symName: __ZSt7forwardIRSt6vectorISt4pairIS0_IfSaIfEEiESaIS4_EEEOT_RNSt16remove_referenceIS8_E4typeE, symObjAddr: 0x4D48, symBinAddr: 0x100006E90, symSize: 0x14 }
  - { offsetInCU: 0x3565A, offset: 0x3565A, size: 0x8, addend: 0x0, symName: __ZNSt6vectorISt4pairIS_IfSaIfEEiESaIS3_EE3endEv, symObjAddr: 0x4A90, symBinAddr: 0x100006BD8, symSize: 0x28 }
  - { offsetInCU: 0x35662, offset: 0x35662, size: 0x8, addend: 0x0, symName: __ZNSt6vectorISt4pairIS_IfSaIfEEiESaIS3_EE17_M_realloc_insertIJRKS3_EEEvN9__gnu_cxx17__normal_iteratorIPS3_S5_EEDpOT_, symObjAddr: 0x4AB8, symBinAddr: 0x100006C00, symSize: 0x290 }
  - { offsetInCU: 0x356E5, offset: 0x356E5, size: 0x8, addend: 0x0, symName: __ZNSt6vectorIfSaIfEE14_M_move_assignEOS1_St17integral_constantIbLb1EE, symObjAddr: 0x49FC, symBinAddr: 0x100006B44, symSize: 0x94 }
  - { offsetInCU: 0x356ED, offset: 0x356ED, size: 0x8, addend: 0x0, symName: __ZNSt6vectorISt4pairIS_IfSaIfEEiESaIS3_EE3endEv, symObjAddr: 0x4A90, symBinAddr: 0x100006BD8, symSize: 0x28 }
  - { offsetInCU: 0x35804, offset: 0x35804, size: 0x8, addend: 0x0, symName: __ZSt4moveIRSt6vectorIfSaIfEEEONSt16remove_referenceIT_E4typeEOS5_, symObjAddr: 0x49E8, symBinAddr: 0x100006B30, symSize: 0x14 }
  - { offsetInCU: 0x3580C, offset: 0x3580C, size: 0x8, addend: 0x0, symName: __ZNSt6vectorIfSaIfEE14_M_move_assignEOS1_St17integral_constantIbLb1EE, symObjAddr: 0x49FC, symBinAddr: 0x100006B44, symSize: 0x94 }
  - { offsetInCU: 0x35864, offset: 0x35864, size: 0x8, addend: 0x0, symName: __ZNSt12_Vector_baseISt4pairISt6vectorIfSaIfEEiESaIS4_EE17_Vector_impl_dataC2Ev, symObjAddr: 0x49BC, symBinAddr: 0x100006B04, symSize: 0x2C }
  - { offsetInCU: 0x3586C, offset: 0x3586C, size: 0x8, addend: 0x0, symName: __ZSt4moveIRSt6vectorIfSaIfEEEONSt16remove_referenceIT_E4typeEOS5_, symObjAddr: 0x49E8, symBinAddr: 0x100006B30, symSize: 0x14 }
  - { offsetInCU: 0x358C2, offset: 0x358C2, size: 0x8, addend: 0x0, symName: __ZNSt12_Vector_baseIfSaIfEE17_Vector_impl_dataC2EOS2_, symObjAddr: 0x494C, symBinAddr: 0x100006A94, symSize: 0x70 }
  - { offsetInCU: 0x358CA, offset: 0x358CA, size: 0x8, addend: 0x0, symName: __ZNSt12_Vector_baseISt4pairISt6vectorIfSaIfEEiESaIS4_EE17_Vector_impl_dataC2Ev, symObjAddr: 0x49BC, symBinAddr: 0x100006B04, symSize: 0x2C }
  - { offsetInCU: 0x35998, offset: 0x35998, size: 0x8, addend: 0x0, symName: __ZSt4moveIRNSt12_Vector_baseIfSaIfEE12_Vector_implEEONSt16remove_referenceIT_E4typeEOS6_, symObjAddr: 0x4938, symBinAddr: 0x100006A80, symSize: 0x14 }
  - { offsetInCU: 0x359A0, offset: 0x359A0, size: 0x8, addend: 0x0, symName: __ZNSt12_Vector_baseIfSaIfEE17_Vector_impl_dataC2EOS2_, symObjAddr: 0x494C, symBinAddr: 0x100006A94, symSize: 0x70 }
  - { offsetInCU: 0x35955, offset: 0x35955, size: 0x8, addend: 0x0, symName: __ZNSt6vectorIfSaIfEE12emplace_backIJfEEERfDpOT_, symObjAddr: 0x4850, symBinAddr: 0x100006998, symSize: 0xE8 }
  - { offsetInCU: 0x3595D, offset: 0x3595D, size: 0x8, addend: 0x0, symName: __ZSt4moveIRNSt12_Vector_baseIfSaIfEE12_Vector_implEEONSt16remove_referenceIT_E4typeEOS6_, symObjAddr: 0x4938, symBinAddr: 0x100006A80, symSize: 0x14 }
  - { offsetInCU: 0x35A6D, offset: 0x35A6D, size: 0x8, addend: 0x0, symName: __ZSt4moveIRfEONSt16remove_referenceIT_E4typeEOS2_, symObjAddr: 0x483C, symBinAddr: 0x100006984, symSize: 0x14 }
  - { offsetInCU: 0x35A75, offset: 0x35A75, size: 0x8, addend: 0x0, symName: __ZNSt6vectorIfSaIfEE12emplace_backIJfEEERfDpOT_, symObjAddr: 0x4850, symBinAddr: 0x100006998, symSize: 0xE8 }
  - { offsetInCU: 0x35AD8, offset: 0x35AD8, size: 0x8, addend: 0x0, symName: __ZNSt12_Vector_baseIfSaIfEE19_M_get_Tp_allocatorEv, symObjAddr: 0x4828, symBinAddr: 0x100006970, symSize: 0x14 }
  - { offsetInCU: 0x35AE0, offset: 0x35AE0, size: 0x8, addend: 0x0, symName: __ZSt4moveIRfEONSt16remove_referenceIT_E4typeEOS2_, symObjAddr: 0x483C, symBinAddr: 0x100006984, symSize: 0x14 }
  - { offsetInCU: 0x35B07, offset: 0x35B07, size: 0x8, addend: 0x0, symName: __ZNSt12_Vector_baseIfSaIfEE13_M_deallocateEPfm, symObjAddr: 0x47D0, symBinAddr: 0x100006918, symSize: 0x58 }
  - { offsetInCU: 0x35B0F, offset: 0x35B0F, size: 0x8, addend: 0x0, symName: __ZNSt12_Vector_baseIfSaIfEE19_M_get_Tp_allocatorEv, symObjAddr: 0x4828, symBinAddr: 0x100006970, symSize: 0x14 }
  - { offsetInCU: 0x35BE8, offset: 0x35BE8, size: 0x8, addend: 0x0, symName: __ZNSt15__new_allocatorIfED2Ev, symObjAddr: 0x47BC, symBinAddr: 0x100006904, symSize: 0x14 }
  - { offsetInCU: 0x35BF0, offset: 0x35BF0, size: 0x8, addend: 0x0, symName: __ZNSt12_Vector_baseIfSaIfEE13_M_deallocateEPfm, symObjAddr: 0x47D0, symBinAddr: 0x100006918, symSize: 0x58 }
  - { offsetInCU: 0x35C48, offset: 0x35C48, size: 0x8, addend: 0x0, symName: __ZNSt12_Vector_baseIfSaIfEE17_Vector_impl_dataC1Ev, symObjAddr: 0x4790, symBinAddr: 0x1000068D8, symSize: 0x2C }
  - { offsetInCU: 0x35C50, offset: 0x35C50, size: 0x8, addend: 0x0, symName: __ZNSt15__new_allocatorIfED2Ev, symObjAddr: 0x47BC, symBinAddr: 0x100006904, symSize: 0x14 }
  - { offsetInCU: 0x35C78, offset: 0x35C78, size: 0x8, addend: 0x0, symName: __ZNSt12_Vector_baseIfSaIfEE17_Vector_impl_dataC2Ev, symObjAddr: 0x4764, symBinAddr: 0x1000068AC, symSize: 0x2C }
  - { offsetInCU: 0x35C80, offset: 0x35C80, size: 0x8, addend: 0x0, symName: __ZNSt12_Vector_baseIfSaIfEE17_Vector_impl_dataC1Ev, symObjAddr: 0x4790, symBinAddr: 0x1000068D8, symSize: 0x2C }
  - { offsetInCU: 0x35C90, offset: 0x35C90, size: 0x8, addend: 0x0, symName: __ZNSt12_Vector_baseISt4pairISt6vectorIfSaIfEEiESaIS4_EE13_M_deallocateEPS4_m, symObjAddr: 0x470C, symBinAddr: 0x100006854, symSize: 0x58 }
  - { offsetInCU: 0x35C98, offset: 0x35C98, size: 0x8, addend: 0x0, symName: __ZNSt12_Vector_baseIfSaIfEE17_Vector_impl_dataC2Ev, symObjAddr: 0x4764, symBinAddr: 0x1000068AC, symSize: 0x2C }
  - { offsetInCU: 0x35D8B, offset: 0x35D8B, size: 0x8, addend: 0x0, symName: __ZNSt15__new_allocatorISt4pairISt6vectorIfSaIfEEiEED2Ev, symObjAddr: 0x46F8, symBinAddr: 0x100006840, symSize: 0x14 }
  - { offsetInCU: 0x35D93, offset: 0x35D93, size: 0x8, addend: 0x0, symName: __ZNSt12_Vector_baseISt4pairISt6vectorIfSaIfEEiESaIS4_EE13_M_deallocateEPS4_m, symObjAddr: 0x470C, symBinAddr: 0x100006854, symSize: 0x58 }
  - { offsetInCU: 0x35E07, offset: 0x35E07, size: 0x8, addend: 0x0, symName: __ZNSt12_Vector_baseISt4pairISt6vectorIfSaIfEEiESaIS4_EE19_M_get_Tp_allocatorEv, symObjAddr: 0x46E4, symBinAddr: 0x10000682C, symSize: 0x14 }
  - { offsetInCU: 0x35E0F, offset: 0x35E0F, size: 0x8, addend: 0x0, symName: __ZNSt15__new_allocatorISt4pairISt6vectorIfSaIfEEiEED2Ev, symObjAddr: 0x46F8, symBinAddr: 0x100006840, symSize: 0x14 }
  - { offsetInCU: 0x35F2C, offset: 0x35F2C, size: 0x8, addend: 0x0, symName: __ZSt22__uninitialized_copy_aIN9__gnu_cxx17__normal_iteratorIPKhSt6vectorIhSaIhEEEEPhhET0_T_SA_S9_RSaIT1_E, symObjAddr: 0x46B4, symBinAddr: 0x1000067FC, symSize: 0x30 }
  - { offsetInCU: 0x35F34, offset: 0x35F34, size: 0x8, addend: 0x0, symName: __ZNSt12_Vector_baseISt4pairISt6vectorIfSaIfEEiESaIS4_EE19_M_get_Tp_allocatorEv, symObjAddr: 0x46E4, symBinAddr: 0x10000682C, symSize: 0x14 }
  - { offsetInCU: 0x35ED1, offset: 0x35ED1, size: 0x8, addend: 0x0, symName: __ZNKSt6vectorIhSaIhEE3endEv, symObjAddr: 0x468C, symBinAddr: 0x1000067D4, symSize: 0x28 }
  - { offsetInCU: 0x35ED9, offset: 0x35ED9, size: 0x8, addend: 0x0, symName: __ZSt22__uninitialized_copy_aIN9__gnu_cxx17__normal_iteratorIPKhSt6vectorIhSaIhEEEEPhhET0_T_SA_S9_RSaIT1_E, symObjAddr: 0x46B4, symBinAddr: 0x1000067FC, symSize: 0x30 }
  - { offsetInCU: 0x35F00, offset: 0x35F00, size: 0x8, addend: 0x0, symName: __ZNKSt6vectorIhSaIhEE5beginEv, symObjAddr: 0x4668, symBinAddr: 0x1000067B0, symSize: 0x24 }
  - { offsetInCU: 0x35F08, offset: 0x35F08, size: 0x8, addend: 0x0, symName: __ZNKSt6vectorIhSaIhEE3endEv, symObjAddr: 0x468C, symBinAddr: 0x1000067D4, symSize: 0x28 }
  - { offsetInCU: 0x35F93, offset: 0x35F93, size: 0x8, addend: 0x0, symName: __ZNSt12_Vector_baseIhSaIhEEC2EmRKS0_, symObjAddr: 0x4614, symBinAddr: 0x10000675C, symSize: 0x54 }
  - { offsetInCU: 0x35F9B, offset: 0x35F9B, size: 0x8, addend: 0x0, symName: __ZNKSt6vectorIhSaIhEE5beginEv, symObjAddr: 0x4668, symBinAddr: 0x1000067B0, symSize: 0x24 }
  - { offsetInCU: 0x35FFF, offset: 0x35FFF, size: 0x8, addend: 0x0, symName: __ZNKSt12_Vector_baseIhSaIhEE19_M_get_Tp_allocatorEv, symObjAddr: 0x4600, symBinAddr: 0x100006748, symSize: 0x14 }
  - { offsetInCU: 0x36007, offset: 0x36007, size: 0x8, addend: 0x0, symName: __ZNSt12_Vector_baseIhSaIhEEC2EmRKS0_, symObjAddr: 0x4614, symBinAddr: 0x10000675C, symSize: 0x54 }
  - { offsetInCU: 0x3616C, offset: 0x3616C, size: 0x8, addend: 0x0, symName: __ZSt22__uninitialized_copy_aIN9__gnu_cxx17__normal_iteratorIPKSt6vectorIhSaIhEES2_IS4_SaIS4_EEEEPS4_S4_ET0_T_SC_SB_RSaIT1_E, symObjAddr: 0x45D0, symBinAddr: 0x100006718, symSize: 0x30 }
  - { offsetInCU: 0x36174, offset: 0x36174, size: 0x8, addend: 0x0, symName: __ZNKSt12_Vector_baseIhSaIhEE19_M_get_Tp_allocatorEv, symObjAddr: 0x4600, symBinAddr: 0x100006748, symSize: 0x14 }
  - { offsetInCU: 0x360C9, offset: 0x360C9, size: 0x8, addend: 0x0, symName: __ZNKSt6vectorIS_IhSaIhEESaIS1_EE3endEv, symObjAddr: 0x45A8, symBinAddr: 0x1000066F0, symSize: 0x28 }
  - { offsetInCU: 0x360D1, offset: 0x360D1, size: 0x8, addend: 0x0, symName: __ZSt22__uninitialized_copy_aIN9__gnu_cxx17__normal_iteratorIPKSt6vectorIhSaIhEES2_IS4_SaIS4_EEEEPS4_S4_ET0_T_SC_SB_RSaIT1_E, symObjAddr: 0x45D0, symBinAddr: 0x100006718, symSize: 0x30 }
  - { offsetInCU: 0x360F8, offset: 0x360F8, size: 0x8, addend: 0x0, symName: __ZNKSt6vectorIS_IhSaIhEESaIS1_EE5beginEv, symObjAddr: 0x4584, symBinAddr: 0x1000066CC, symSize: 0x24 }
  - { offsetInCU: 0x36100, offset: 0x36100, size: 0x8, addend: 0x0, symName: __ZNKSt6vectorIS_IhSaIhEESaIS1_EE3endEv, symObjAddr: 0x45A8, symBinAddr: 0x1000066F0, symSize: 0x28 }
  - { offsetInCU: 0x3619D, offset: 0x3619D, size: 0x8, addend: 0x0, symName: __ZNSt12_Vector_baseISt6vectorIhSaIhEESaIS2_EEC2EmRKS3_, symObjAddr: 0x4530, symBinAddr: 0x100006678, symSize: 0x54 }
  - { offsetInCU: 0x361A5, offset: 0x361A5, size: 0x8, addend: 0x0, symName: __ZNKSt6vectorIS_IhSaIhEESaIS1_EE5beginEv, symObjAddr: 0x4584, symBinAddr: 0x1000066CC, symSize: 0x24 }
  - { offsetInCU: 0x361F7, offset: 0x361F7, size: 0x8, addend: 0x0, symName: __ZNKSt12_Vector_baseISt6vectorIhSaIhEESaIS2_EE19_M_get_Tp_allocatorEv, symObjAddr: 0x451C, symBinAddr: 0x100006664, symSize: 0x14 }
  - { offsetInCU: 0x361FF, offset: 0x361FF, size: 0x8, addend: 0x0, symName: __ZNSt12_Vector_baseISt6vectorIhSaIhEESaIS2_EEC2EmRKS3_, symObjAddr: 0x4530, symBinAddr: 0x100006678, symSize: 0x54 }
  - { offsetInCU: 0x3627E, offset: 0x3627E, size: 0x8, addend: 0x0, symName: __ZNSt12_Vector_baseIhSaIhEE19_M_get_Tp_allocatorEv, symObjAddr: 0x4508, symBinAddr: 0x100006650, symSize: 0x14 }
  - { offsetInCU: 0x36286, offset: 0x36286, size: 0x8, addend: 0x0, symName: __ZNKSt12_Vector_baseISt6vectorIhSaIhEESaIS2_EE19_M_get_Tp_allocatorEv, symObjAddr: 0x451C, symBinAddr: 0x100006664, symSize: 0x14 }
  - { offsetInCU: 0x362F7, offset: 0x362F7, size: 0x8, addend: 0x0, symName: __ZNSt12_Vector_baseIhSaIhEED2Ev, symObjAddr: 0x44BC, symBinAddr: 0x100006604, symSize: 0x4C }
  - { offsetInCU: 0x362FF, offset: 0x362FF, size: 0x8, addend: 0x0, symName: __ZNSt12_Vector_baseIhSaIhEE19_M_get_Tp_allocatorEv, symObjAddr: 0x4508, symBinAddr: 0x100006650, symSize: 0x14 }
  - { offsetInCU: 0x3635F, offset: 0x3635F, size: 0x8, addend: 0x0, symName: __ZNSt12_Vector_baseISt6vectorIhSaIhEESaIS2_EE19_M_get_Tp_allocatorEv, symObjAddr: 0x44A8, symBinAddr: 0x1000065F0, symSize: 0x14 }
  - { offsetInCU: 0x36367, offset: 0x36367, size: 0x8, addend: 0x0, symName: __ZNSt12_Vector_baseIhSaIhEED2Ev, symObjAddr: 0x44BC, symBinAddr: 0x100006604, symSize: 0x4C }
  - { offsetInCU: 0x363EA, offset: 0x363EA, size: 0x8, addend: 0x0, symName: __ZNSt12_Vector_baseISt6vectorIhSaIhEESaIS2_EED2Ev, symObjAddr: 0x444C, symBinAddr: 0x100006594, symSize: 0x5C }
  - { offsetInCU: 0x363F2, offset: 0x363F2, size: 0x8, addend: 0x0, symName: __ZNSt12_Vector_baseISt6vectorIhSaIhEESaIS2_EE19_M_get_Tp_allocatorEv, symObjAddr: 0x44A8, symBinAddr: 0x1000065F0, symSize: 0x14 }
  - { offsetInCU: 0x364B7, offset: 0x364B7, size: 0x8, addend: 0x0, symName: __ZN5mnist19read_dataset_directISt6vectorS1_IhSaIhEEhEENS_13MNIST_datasetIT_T0_T1_EERKNSt7__cxx1112basic_stringIcSt11char_traitsIcESaIcEEEmm, symObjAddr: 0x4348, symBinAddr: 0x100006490, symSize: 0x104 }
  - { offsetInCU: 0x364BF, offset: 0x364BF, size: 0x8, addend: 0x0, symName: __ZNSt12_Vector_baseISt6vectorIhSaIhEESaIS2_EED2Ev, symObjAddr: 0x444C, symBinAddr: 0x100006594, symSize: 0x5C }
  - { offsetInCU: 0x365CE, offset: 0x365CE, size: 0x8, addend: 0x0, symName: __ZZN5mnist19read_dataset_directISt6vectorS1_IhSaIhEEhEENS_13MNIST_datasetIT_T0_T1_EERKNSt7__cxx1112basic_stringIcSt11char_traitsIcESaIcEEEmmENKUlvE_clEv, symObjAddr: 0x4218, symBinAddr: 0x100006360, symSize: 0x70 }
  - { offsetInCU: 0x365D6, offset: 0x365D6, size: 0x8, addend: 0x0, symName: __ZZN5mnist19read_dataset_directISt6vectorS1_IhSaIhEEhEENS_13MNIST_datasetIT_T0_T1_EERKNSt7__cxx1112basic_stringIcSt11char_traitsIcESaIcEEEmmENKUlvE0_clEv, symObjAddr: 0x4288, symBinAddr: 0x1000063D0, symSize: 0x70 }
  - { offsetInCU: 0x36759, offset: 0x36759, size: 0x8, addend: 0x0, symName: __ZZN5mnist19read_dataset_directISt6vectorS1_IhSaIhEEhEENS_13MNIST_datasetIT_T0_T1_EERKNSt7__cxx1112basic_stringIcSt11char_traitsIcESaIcEEEmmENKUlvE0_clEv, symObjAddr: 0x4288, symBinAddr: 0x1000063D0, symSize: 0x70 }
  - { offsetInCU: 0x36761, offset: 0x36761, size: 0x8, addend: 0x0, symName: __ZNSt12_Vector_baseIhSaIhEEC2EOS1_, symObjAddr: 0x42F8, symBinAddr: 0x100006440, symSize: 0x28 }
  - { offsetInCU: 0x367DE, offset: 0x367DE, size: 0x8, addend: 0x0, symName: __ZNSt6vectorIhSaIhEEC1EOS1_, symObjAddr: 0x4320, symBinAddr: 0x100006468, symSize: 0x28 }
  - { offsetInCU: 0x367E6, offset: 0x367E6, size: 0x8, addend: 0x0, symName: __ZN5mnist19read_dataset_directISt6vectorS1_IhSaIhEEhEENS_13MNIST_datasetIT_T0_T1_EERKNSt7__cxx1112basic_stringIcSt11char_traitsIcESaIcEEEmm, symObjAddr: 0x4348, symBinAddr: 0x100006490, symSize: 0x104 }
  - { offsetInCU: 0x36846, offset: 0x36846, size: 0x8, addend: 0x0, symName: __ZNSt12_Vector_baseIhSaIhEEC2EOS1_, symObjAddr: 0x42F8, symBinAddr: 0x100006440, symSize: 0x28 }
  - { offsetInCU: 0x3684E, offset: 0x3684E, size: 0x8, addend: 0x0, symName: __ZNSt6vectorIhSaIhEEC1EOS1_, symObjAddr: 0x4320, symBinAddr: 0x100006468, symSize: 0x28 }
  - { offsetInCU: 0x368B2, offset: 0x368B2, size: 0x8, addend: 0x0, symName: __ZN5mnist13MNIST_datasetISt6vectorS1_IhSaIhEEhEC1Ev, symObjAddr: 0x41D4, symBinAddr: 0x10000631C, symSize: 0x44 }
  - { offsetInCU: 0x368BA, offset: 0x368BA, size: 0x8, addend: 0x0, symName: __ZZN5mnist19read_dataset_directISt6vectorS1_IhSaIhEEhEENS_13MNIST_datasetIT_T0_T1_EERKNSt7__cxx1112basic_stringIcSt11char_traitsIcESaIcEEEmmENKUlvE_clEv, symObjAddr: 0x4218, symBinAddr: 0x100006360, symSize: 0x70 }
  - { offsetInCU: 0x368E2, offset: 0x368E2, size: 0x8, addend: 0x0, symName: __ZNSt6vectorIhSaIhEEC1Ev, symObjAddr: 0x41B4, symBinAddr: 0x1000062FC, symSize: 0x20 }
  - { offsetInCU: 0x368EA, offset: 0x368EA, size: 0x8, addend: 0x0, symName: __ZN5mnist13MNIST_datasetISt6vectorS1_IhSaIhEEhEC1Ev, symObjAddr: 0x41D4, symBinAddr: 0x10000631C, symSize: 0x44 }
  - { offsetInCU: 0x36934, offset: 0x36934, size: 0x8, addend: 0x0, symName: __ZNSt12_Vector_baseIhSaIhEEC2Ev, symObjAddr: 0x4194, symBinAddr: 0x1000062DC, symSize: 0x20 }
  - { offsetInCU: 0x3693C, offset: 0x3693C, size: 0x8, addend: 0x0, symName: __ZNSt6vectorIhSaIhEEC1Ev, symObjAddr: 0x41B4, symBinAddr: 0x1000062FC, symSize: 0x20 }
  - { offsetInCU: 0x3699F, offset: 0x3699F, size: 0x8, addend: 0x0, symName: __ZNSt12_Vector_baseIhSaIhEE12_Vector_implD1Ev, symObjAddr: 0x4168, symBinAddr: 0x1000062B0, symSize: 0x2C }
  - { offsetInCU: 0x369A7, offset: 0x369A7, size: 0x8, addend: 0x0, symName: __ZNSt12_Vector_baseIhSaIhEEC2Ev, symObjAddr: 0x4194, symBinAddr: 0x1000062DC, symSize: 0x20 }
  - { offsetInCU: 0x36A08, offset: 0x36A08, size: 0x8, addend: 0x0, symName: __ZNSt6vectorIS_IhSaIhEESaIS1_EEC1Ev, symObjAddr: 0x4148, symBinAddr: 0x100006290, symSize: 0x20 }
  - { offsetInCU: 0x36A10, offset: 0x36A10, size: 0x8, addend: 0x0, symName: __ZNSt12_Vector_baseIhSaIhEE12_Vector_implD1Ev, symObjAddr: 0x4168, symBinAddr: 0x1000062B0, symSize: 0x2C }
  - { offsetInCU: 0x36A61, offset: 0x36A61, size: 0x8, addend: 0x0, symName: __ZNSt12_Vector_baseISt6vectorIhSaIhEESaIS2_EEC2Ev, symObjAddr: 0x4128, symBinAddr: 0x100006270, symSize: 0x20 }
  - { offsetInCU: 0x36A69, offset: 0x36A69, size: 0x8, addend: 0x0, symName: __ZNSt6vectorIS_IhSaIhEESaIS1_EEC1Ev, symObjAddr: 0x4148, symBinAddr: 0x100006290, symSize: 0x20 }
  - { offsetInCU: 0x36ACC, offset: 0x36ACC, size: 0x8, addend: 0x0, symName: __ZNSt12_Vector_baseISt6vectorIhSaIhEESaIS2_EE12_Vector_implD1Ev, symObjAddr: 0x40FC, symBinAddr: 0x100006244, symSize: 0x2C }
  - { offsetInCU: 0x36AD4, offset: 0x36AD4, size: 0x8, addend: 0x0, symName: __ZNSt12_Vector_baseISt6vectorIhSaIhEESaIS2_EEC2Ev, symObjAddr: 0x4128, symBinAddr: 0x100006270, symSize: 0x20 }
  - { offsetInCU: 0x36B4A, offset: 0x36B4A, size: 0x8, addend: 0x0, symName: __ZNSt11_Tuple_implILm1EJSt14default_deleteIA_cEEEC2EOS3_, symObjAddr: 0x40E4, symBinAddr: 0x10000622C, symSize: 0x18 }
  - { offsetInCU: 0x36B52, offset: 0x36B52, size: 0x8, addend: 0x0, symName: __ZNSt12_Vector_baseISt6vectorIhSaIhEESaIS2_EE12_Vector_implD1Ev, symObjAddr: 0x40FC, symBinAddr: 0x100006244, symSize: 0x2C }
  - { offsetInCU: 0x36BE0, offset: 0x36BE0, size: 0x8, addend: 0x0, symName: __ZSt4moveIRSt5tupleIJPcSt14default_deleteIA_cEEEEONSt16remove_referenceIT_E4typeEOS8_, symObjAddr: 0x40D0, symBinAddr: 0x100006218, symSize: 0x14 }
  - { offsetInCU: 0x36BE8, offset: 0x36BE8, size: 0x8, addend: 0x0, symName: __ZNSt11_Tuple_implILm1EJSt14default_deleteIA_cEEEC2EOS3_, symObjAddr: 0x40E4, symBinAddr: 0x10000622C, symSize: 0x18 }
  - { offsetInCU: 0x36C06, offset: 0x36C06, size: 0x8, addend: 0x0, symName: __ZNSt15__uniq_ptr_implIcSt14default_deleteIA_cEEC2EPc, symObjAddr: 0x4094, symBinAddr: 0x1000061DC, symSize: 0x3C }
  - { offsetInCU: 0x36C0E, offset: 0x36C0E, size: 0x8, addend: 0x0, symName: __ZSt4moveIRSt5tupleIJPcSt14default_deleteIA_cEEEEONSt16remove_referenceIT_E4typeEOS8_, symObjAddr: 0x40D0, symBinAddr: 0x100006218, symSize: 0x14 }
  - { offsetInCU: 0x36C20, offset: 0x36C20, size: 0x8, addend: 0x0, symName: __ZNKSt14default_deleteIA_cEclIcEENSt9enable_ifIXsrSt14is_convertibleIPA_T_PS0_E5valueEvE4typeEPS5_, symObjAddr: 0x4064, symBinAddr: 0x1000061AC, symSize: 0x30 }
  - { offsetInCU: 0x36C28, offset: 0x36C28, size: 0x8, addend: 0x0, symName: __ZNSt15__uniq_ptr_implIcSt14default_deleteIA_cEEC2EPc, symObjAddr: 0x4094, symBinAddr: 0x1000061DC, symSize: 0x3C }
  - { offsetInCU: 0x36C70, offset: 0x36C70, size: 0x8, addend: 0x0, symName: __ZNSt10unique_ptrIA_cSt14default_deleteIS0_EE11get_deleterEv, symObjAddr: 0x4048, symBinAddr: 0x100006190, symSize: 0x1C }
  - { offsetInCU: 0x36C78, offset: 0x36C78, size: 0x8, addend: 0x0, symName: __ZNKSt14default_deleteIA_cEclIcEENSt9enable_ifIXsrSt14is_convertibleIPA_T_PS0_E5valueEvE4typeEPS5_, symObjAddr: 0x4064, symBinAddr: 0x1000061AC, symSize: 0x30 }
  - { offsetInCU: 0x36C9F, offset: 0x36C9F, size: 0x8, addend: 0x0, symName: __ZNSt15__uniq_ptr_implIcSt14default_deleteIA_cEE6_M_ptrEv, symObjAddr: 0x402C, symBinAddr: 0x100006174, symSize: 0x1C }
  - { offsetInCU: 0x36CA7, offset: 0x36CA7, size: 0x8, addend: 0x0, symName: __ZNSt10unique_ptrIA_cSt14default_deleteIS0_EE11get_deleterEv, symObjAddr: 0x4048, symBinAddr: 0x100006190, symSize: 0x1C }
  - { offsetInCU: 0x36D2F, offset: 0x36D2F, size: 0x8, addend: 0x0, symName: __ZNSt5tupleIJPcSt14default_deleteIA_cEEEC1ILb1ELb1EEEv, symObjAddr: 0x400C, symBinAddr: 0x100006154, symSize: 0x20 }
  - { offsetInCU: 0x36D37, offset: 0x36D37, size: 0x8, addend: 0x0, symName: __ZNSt15__uniq_ptr_implIcSt14default_deleteIA_cEE6_M_ptrEv, symObjAddr: 0x402C, symBinAddr: 0x100006174, symSize: 0x1C }
  - { offsetInCU: 0x36D37, offset: 0x36D37, size: 0x8, addend: 0x0, symName: __ZNKSt15__uniq_ptr_implIcSt14default_deleteIA_cEE6_M_ptrEv, symObjAddr: 0x3FEC, symBinAddr: 0x100006134, symSize: 0x20 }
  - { offsetInCU: 0x36D3F, offset: 0x36D3F, size: 0x8, addend: 0x0, symName: __ZNSt5tupleIJPcSt14default_deleteIA_cEEEC1ILb1ELb1EEEv, symObjAddr: 0x400C, symBinAddr: 0x100006154, symSize: 0x20 }
  - { offsetInCU: 0x36E5D, offset: 0x36E5D, size: 0x8, addend: 0x0, symName: __ZSt12__str_concatINSt7__cxx1112basic_stringIcSt11char_traitsIcESaIcEEEET_PKNS6_10value_typeENS6_9size_typeES9_SA_RKNS6_14allocator_typeE, symObjAddr: 0x3F0C, symBinAddr: 0x100006054, symSize: 0xE0 }
  - { offsetInCU: 0x36E65, offset: 0x36E65, size: 0x8, addend: 0x0, symName: __ZNKSt15__uniq_ptr_implIcSt14default_deleteIA_cEE6_M_ptrEv, symObjAddr: 0x3FEC, symBinAddr: 0x100006134, symSize: 0x20 }
  - { offsetInCU: 0x36F3C, offset: 0x36F3C, size: 0x8, addend: 0x0, symName: __ZNSt7__cxx1112basic_stringIcSt11char_traitsIcESaIcEE12_M_constructIPKcEEvT_S8_St20forward_iterator_tag, symObjAddr: 0x3E24, symBinAddr: 0x100005F6C, symSize: 0xE8 }
  - { offsetInCU: 0x36F44, offset: 0x36F44, size: 0x8, addend: 0x0, symName: __ZSt12__str_concatINSt7__cxx1112basic_stringIcSt11char_traitsIcESaIcEEEET_PKNS6_10value_typeENS6_9size_typeES9_SA_RKNS6_14allocator_typeE, symObjAddr: 0x3F0C, symBinAddr: 0x100006054, symSize: 0xE0 }
  - { offsetInCU: 0x370FC, offset: 0x370FC, size: 0x8, addend: 0x0, symName: __ZZNSt7__cxx1112basic_stringIcSt11char_traitsIcESaIcEE12_M_constructIPKcEEvT_S8_St20forward_iterator_tagEN6_GuardC1EPS4_, symObjAddr: 0x3DCC, symBinAddr: 0x100005F14, symSize: 0x24 }
  - { offsetInCU: 0x37104, offset: 0x37104, size: 0x8, addend: 0x0, symName: __ZZNSt7__cxx1112basic_stringIcSt11char_traitsIcESaIcEE12_M_constructIPKcEEvT_S8_St20forward_iterator_tagEN6_GuardD1Ev, symObjAddr: 0x3DF0, symBinAddr: 0x100005F38, symSize: 0x34 }
  - { offsetInCU: 0x37137, offset: 0x37137, size: 0x8, addend: 0x0, symName: __ZZNSt7__cxx1112basic_stringIcSt11char_traitsIcESaIcEE12_M_constructIPKcEEvT_S8_St20forward_iterator_tagEN6_GuardD1Ev, symObjAddr: 0x3DF0, symBinAddr: 0x100005F38, symSize: 0x34 }
  - { offsetInCU: 0x3713F, offset: 0x3713F, size: 0x8, addend: 0x0, symName: __ZNSt7__cxx1112basic_stringIcSt11char_traitsIcESaIcEE12_M_constructIPKcEEvT_S8_St20forward_iterator_tag, symObjAddr: 0x3E24, symBinAddr: 0x100005F6C, symSize: 0xE8 }
  - { offsetInCU: 0x37211, offset: 0x37211, size: 0x8, addend: 0x0, symName: __ZNSt15__new_allocatorIcED2Ev, symObjAddr: 0x3DB8, symBinAddr: 0x100005F00, symSize: 0x14 }
  - { offsetInCU: 0x37219, offset: 0x37219, size: 0x8, addend: 0x0, symName: __ZZNSt7__cxx1112basic_stringIcSt11char_traitsIcESaIcEE12_M_constructIPKcEEvT_S8_St20forward_iterator_tagEN6_GuardC1EPS4_, symObjAddr: 0x3DCC, symBinAddr: 0x100005F14, symSize: 0x24 }
  - { offsetInCU: 0x3723E, offset: 0x3723E, size: 0x8, addend: 0x0, symName: __ZN9__gnu_cxx11char_traitsIcE2eqERKcS3_, symObjAddr: 0x3D88, symBinAddr: 0x100005ED0, symSize: 0x30 }
  - { offsetInCU: 0x37246, offset: 0x37246, size: 0x8, addend: 0x0, symName: __ZNSt15__new_allocatorIcED2Ev, symObjAddr: 0x3DB8, symBinAddr: 0x100005F00, symSize: 0x14 }
  - { offsetInCU: 0x37284, offset: 0x37284, size: 0x8, addend: 0x0, symName: __ZNSt6vectorIfSaIfEE4dataEv, symObjAddr: 0x3D60, symBinAddr: 0x100005EA8, symSize: 0x28 }
  - { offsetInCU: 0x3728C, offset: 0x3728C, size: 0x8, addend: 0x0, symName: __ZN9__gnu_cxx11char_traitsIcE2eqERKcS3_, symObjAddr: 0x3D88, symBinAddr: 0x100005ED0, symSize: 0x30 }
  - { offsetInCU: 0x372B3, offset: 0x372B3, size: 0x8, addend: 0x0, symName: __ZNSt6vectorISt4pairIS_IfSaIfEEiESaIS3_EEixEm, symObjAddr: 0x3D38, symBinAddr: 0x100005E80, symSize: 0x28 }
  - { offsetInCU: 0x372BB, offset: 0x372BB, size: 0x8, addend: 0x0, symName: __ZNSt6vectorIfSaIfEE4dataEv, symObjAddr: 0x3D60, symBinAddr: 0x100005EA8, symSize: 0x28 }
  - { offsetInCU: 0x372F6, offset: 0x372F6, size: 0x8, addend: 0x0, symName: __ZNKSt6vectorISt4pairIS_IfSaIfEEiESaIS3_EE4sizeEv, symObjAddr: 0x3D10, symBinAddr: 0x100005E58, symSize: 0x28 }
  - { offsetInCU: 0x372FE, offset: 0x372FE, size: 0x8, addend: 0x0, symName: __ZNSt6vectorISt4pairIS_IfSaIfEEiESaIS3_EEixEm, symObjAddr: 0x3D38, symBinAddr: 0x100005E80, symSize: 0x28 }
  - { offsetInCU: 0x37384, offset: 0x37384, size: 0x8, addend: 0x0, symName: __ZNSt6vectorISt4pairIS_IfSaIfEEiESaIS3_EEC1ERKS5_, symObjAddr: 0x3BFC, symBinAddr: 0x100005D44, symSize: 0x114 }
  - { offsetInCU: 0x3738C, offset: 0x3738C, size: 0x8, addend: 0x0, symName: __ZNKSt6vectorISt4pairIS_IfSaIfEEiESaIS3_EE4sizeEv, symObjAddr: 0x3D10, symBinAddr: 0x100005E58, symSize: 0x28 }
  - { offsetInCU: 0x37495, offset: 0x37495, size: 0x8, addend: 0x0, symName: __ZNSt6vectorIiSaIiEEaSESt16initializer_listIiE, symObjAddr: 0x3BB0, symBinAddr: 0x100005CF8, symSize: 0x4C }
  - { offsetInCU: 0x3749D, offset: 0x3749D, size: 0x8, addend: 0x0, symName: __ZNSt6vectorISt4pairIS_IfSaIfEEiESaIS3_EEC1ERKS5_, symObjAddr: 0x3BFC, symBinAddr: 0x100005D44, symSize: 0x114 }
  - { offsetInCU: 0x37522, offset: 0x37522, size: 0x8, addend: 0x0, symName: __ZNSt12_Vector_baseIiSaIiEED2Ev, symObjAddr: 0x3B60, symBinAddr: 0x100005CA8, symSize: 0x50 }
  - { offsetInCU: 0x3752A, offset: 0x3752A, size: 0x8, addend: 0x0, symName: __ZNSt6vectorIiSaIiEEaSESt16initializer_listIiE, symObjAddr: 0x3BB0, symBinAddr: 0x100005CF8, symSize: 0x4C }
  - { offsetInCU: 0x3757B, offset: 0x3757B, size: 0x8, addend: 0x0, symName: __ZNSt12_Vector_baseIiSaIiEE12_Vector_implC1Ev, symObjAddr: 0x3B28, symBinAddr: 0x100005C70, symSize: 0x38 }
  - { offsetInCU: 0x37583, offset: 0x37583, size: 0x8, addend: 0x0, symName: __ZNSt12_Vector_baseIiSaIiEED2Ev, symObjAddr: 0x3B60, symBinAddr: 0x100005CA8, symSize: 0x50 }
  - { offsetInCU: 0x375CD, offset: 0x375CD, size: 0x8, addend: 0x0, symName: __ZNSt25uniform_real_distributionIfEclISt23mersenne_twister_engineIjLm32ELm624ELm397ELm31ELj2567483615ELm11ELj4294967295ELm7ELj2636928640ELm15ELj4022730752ELm18ELj1812433253EEEEfRT_, symObjAddr: 0x3AFC, symBinAddr: 0x100005C44, symSize: 0x2C }
  - { offsetInCU: 0x375D5, offset: 0x375D5, size: 0x8, addend: 0x0, symName: __ZNSt12_Vector_baseIiSaIiEE12_Vector_implC1Ev, symObjAddr: 0x3B28, symBinAddr: 0x100005C70, symSize: 0x38 }
  - { offsetInCU: 0x37685, offset: 0x37685, size: 0x8, addend: 0x0, symName: __ZNSt25uniform_real_distributionIfEC1Eff, symObjAddr: 0x3ACC, symBinAddr: 0x100005C14, symSize: 0x30 }
  - { offsetInCU: 0x3768D, offset: 0x3768D, size: 0x8, addend: 0x0, symName: __ZNSt25uniform_real_distributionIfEclISt23mersenne_twister_engineIjLm32ELm624ELm397ELm31ELj2567483615ELm11ELj4294967295ELm7ELj2636928640ELm15ELj4022730752ELm18ELj1812433253EEEEfRT_, symObjAddr: 0x3AFC, symBinAddr: 0x100005C44, symSize: 0x2C }
  - { offsetInCU: 0x37763, offset: 0x37763, size: 0x8, addend: 0x0, symName: __ZNSt23mersenne_twister_engineIjLm32ELm624ELm397ELm31ELj2567483615ELm11ELj4294967295ELm7ELj2636928640ELm15ELj4022730752ELm18ELj1812433253EEC1Ej, symObjAddr: 0x3AA4, symBinAddr: 0x100005BEC, symSize: 0x28 }
  - { offsetInCU: 0x3776B, offset: 0x3776B, size: 0x8, addend: 0x0, symName: __ZNSt25uniform_real_distributionIfEC1Eff, symObjAddr: 0x3ACC, symBinAddr: 0x100005C14, symSize: 0x30 }
  - { offsetInCU: 0x37710, offset: 0x37710, size: 0x8, addend: 0x0, symName: __ZNKSt6vectorIiSaIiEE4sizeEv, symObjAddr: 0x3A7C, symBinAddr: 0x100005BC4, symSize: 0x28 }
  - { offsetInCU: 0x37718, offset: 0x37718, size: 0x8, addend: 0x0, symName: __ZNSt23mersenne_twister_engineIjLm32ELm624ELm397ELm31ELj2567483615ELm11ELj4294967295ELm7ELj2636928640ELm15ELj4022730752ELm18ELj1812433253EEC1Ej, symObjAddr: 0x3AA4, symBinAddr: 0x100005BEC, symSize: 0x28 }
  - { offsetInCU: 0x37782, offset: 0x37782, size: 0x8, addend: 0x0, symName: __ZNSt6vectorIiSaIiEED1Ev, symObjAddr: 0x3A20, symBinAddr: 0x100005B68, symSize: 0x5C }
  - { offsetInCU: 0x3778A, offset: 0x3778A, size: 0x8, addend: 0x0, symName: __ZNKSt6vectorIiSaIiEE4sizeEv, symObjAddr: 0x3A7C, symBinAddr: 0x100005BC4, symSize: 0x28 }
  - { offsetInCU: 0x3784E, offset: 0x3784E, size: 0x8, addend: 0x0, symName: __ZNSt6vectorIiSaIiEEC1ESt16initializer_listIiERKS0_, symObjAddr: 0x39B0, symBinAddr: 0x100005AF8, symSize: 0x70 }
  - { offsetInCU: 0x37856, offset: 0x37856, size: 0x8, addend: 0x0, symName: __ZNSt6vectorIiSaIiEED1Ev, symObjAddr: 0x3A20, symBinAddr: 0x100005B68, symSize: 0x5C }
  - { offsetInCU: 0x378A9, offset: 0x378A9, size: 0x8, addend: 0x0, symName: __ZNSt6vectorIiSaIiEEixEm, symObjAddr: 0x3988, symBinAddr: 0x100005AD0, symSize: 0x28 }
  - { offsetInCU: 0x378B1, offset: 0x378B1, size: 0x8, addend: 0x0, symName: __ZNSt6vectorIiSaIiEEC1ESt16initializer_listIiERKS0_, symObjAddr: 0x39B0, symBinAddr: 0x100005AF8, symSize: 0x70 }
  - { offsetInCU: 0x3798E, offset: 0x3798E, size: 0x8, addend: 0x0, symName: __ZNSt4pairISt6vectorIS_IS0_IfSaIfEEiESaIS3_EES5_EC1IRS5_S8_Lb1EEEOT_OT0_, symObjAddr: 0x3918, symBinAddr: 0x100005A60, symSize: 0x70 }
  - { offsetInCU: 0x37996, offset: 0x37996, size: 0x8, addend: 0x0, symName: __ZNSt6vectorIiSaIiEEixEm, symObjAddr: 0x3988, symBinAddr: 0x100005AD0, symSize: 0x28 }
  - { offsetInCU: 0x379A9, offset: 0x379A9, size: 0x8, addend: 0x0, symName: __ZNSt6vectorISt4pairIS_IfSaIfEEiESaIS3_EE9push_backERKS3_, symObjAddr: 0x3810, symBinAddr: 0x100005958, symSize: 0x108 }
  - { offsetInCU: 0x379B1, offset: 0x379B1, size: 0x8, addend: 0x0, symName: __ZNSt4pairISt6vectorIS_IS0_IfSaIfEEiESaIS3_EES5_EC1IRS5_S8_Lb1EEEOT_OT0_, symObjAddr: 0x3918, symBinAddr: 0x100005A60, symSize: 0x70 }
  - { offsetInCU: 0x37A70, offset: 0x37A70, size: 0x8, addend: 0x0, symName: __ZNSt6vectorIfSaIfEEaSEOS1_, symObjAddr: 0x37CC, symBinAddr: 0x100005914, symSize: 0x44 }
  - { offsetInCU: 0x37A78, offset: 0x37A78, size: 0x8, addend: 0x0, symName: __ZNSt6vectorISt4pairIS_IfSaIfEEiESaIS3_EE9push_backERKS3_, symObjAddr: 0x3810, symBinAddr: 0x100005958, symSize: 0x108 }
  - { offsetInCU: 0x37AC7, offset: 0x37AC7, size: 0x8, addend: 0x0, symName: __ZNSt6vectorIS_IhSaIhEESaIS1_EEixEm, symObjAddr: 0x3798, symBinAddr: 0x1000058E0, symSize: 0x34 }
  - { offsetInCU: 0x37ACF, offset: 0x37ACF, size: 0x8, addend: 0x0, symName: __ZNSt6vectorIfSaIfEEaSEOS1_, symObjAddr: 0x37CC, symBinAddr: 0x100005914, symSize: 0x44 }
  - { offsetInCU: 0x37B0A, offset: 0x37B0A, size: 0x8, addend: 0x0, symName: __ZNKSt6vectorIS_IhSaIhEESaIS1_EE4sizeEv, symObjAddr: 0x3764, symBinAddr: 0x1000058AC, symSize: 0x34 }
  - { offsetInCU: 0x37B12, offset: 0x37B12, size: 0x8, addend: 0x0, symName: __ZNSt6vectorIS_IhSaIhEESaIS1_EEixEm, symObjAddr: 0x3798, symBinAddr: 0x1000058E0, symSize: 0x34 }
  - { offsetInCU: 0x37B9E, offset: 0x37B9E, size: 0x8, addend: 0x0, symName: __ZNSt12_Vector_baseISt4pairISt6vectorIfSaIfEEiESaIS4_EE12_Vector_implC1Ev, symObjAddr: 0x372C, symBinAddr: 0x100005874, symSize: 0x38 }
  - { offsetInCU: 0x37BA6, offset: 0x37BA6, size: 0x8, addend: 0x0, symName: __ZNKSt6vectorIS_IhSaIhEESaIS1_EE4sizeEv, symObjAddr: 0x3764, symBinAddr: 0x1000058AC, symSize: 0x34 }
  - { offsetInCU: 0x37C31, offset: 0x37C31, size: 0x8, addend: 0x0, symName: __ZNSt12_Vector_baseIfSaIfEE12_Vector_implC1EOS2_, symObjAddr: 0x36C0, symBinAddr: 0x100005808, symSize: 0x6C }
  - { offsetInCU: 0x37C39, offset: 0x37C39, size: 0x8, addend: 0x0, symName: __ZNSt12_Vector_baseISt4pairISt6vectorIfSaIfEEiESaIS4_EE12_Vector_implC1Ev, symObjAddr: 0x372C, symBinAddr: 0x100005874, symSize: 0x38 }
  - { offsetInCU: 0x37CA7, offset: 0x37CA7, size: 0x8, addend: 0x0, symName: __ZNSt6vectorIfSaIfEE9push_backEOf, symObjAddr: 0x3690, symBinAddr: 0x1000057D8, symSize: 0x30 }
  - { offsetInCU: 0x37CAF, offset: 0x37CAF, size: 0x8, addend: 0x0, symName: __ZNSt12_Vector_baseIfSaIfEE12_Vector_implC1EOS2_, symObjAddr: 0x36C0, symBinAddr: 0x100005808, symSize: 0x6C }
  - { offsetInCU: 0x37CEA, offset: 0x37CEA, size: 0x8, addend: 0x0, symName: __ZNSt6vectorIhSaIhEEixEm, symObjAddr: 0x366C, symBinAddr: 0x1000057B4, symSize: 0x24 }
  - { offsetInCU: 0x37CF2, offset: 0x37CF2, size: 0x8, addend: 0x0, symName: __ZNSt6vectorIfSaIfEE9push_backEOf, symObjAddr: 0x3690, symBinAddr: 0x1000057D8, symSize: 0x30 }
  - { offsetInCU: 0x37D2D, offset: 0x37D2D, size: 0x8, addend: 0x0, symName: __ZNKSt6vectorIhSaIhEE4sizeEv, symObjAddr: 0x3648, symBinAddr: 0x100005790, symSize: 0x24 }
  - { offsetInCU: 0x37D35, offset: 0x37D35, size: 0x8, addend: 0x0, symName: __ZNSt6vectorIhSaIhEEixEm, symObjAddr: 0x366C, symBinAddr: 0x1000057B4, symSize: 0x24 }
  - { offsetInCU: 0x37D9F, offset: 0x37D9F, size: 0x8, addend: 0x0, symName: __ZNSt6vectorIfSaIfEED1Ev, symObjAddr: 0x35EC, symBinAddr: 0x100005734, symSize: 0x5C }
  - { offsetInCU: 0x37DA7, offset: 0x37DA7, size: 0x8, addend: 0x0, symName: __ZNKSt6vectorIhSaIhEE4sizeEv, symObjAddr: 0x3648, symBinAddr: 0x100005790, symSize: 0x24 }
  - { offsetInCU: 0x37E42, offset: 0x37E42, size: 0x8, addend: 0x0, symName: __ZNSt12_Vector_baseIfSaIfEED2Ev, symObjAddr: 0x359C, symBinAddr: 0x1000056E4, symSize: 0x50 }
  - { offsetInCU: 0x37E4A, offset: 0x37E4A, size: 0x8, addend: 0x0, symName: __ZNSt6vectorIfSaIfEED1Ev, symObjAddr: 0x35EC, symBinAddr: 0x100005734, symSize: 0x5C }
  - { offsetInCU: 0x37EC5, offset: 0x37EC5, size: 0x8, addend: 0x0, symName: __ZNSt12_Vector_baseIfSaIfEE12_Vector_implC1Ev, symObjAddr: 0x3564, symBinAddr: 0x1000056AC, symSize: 0x38 }
  - { offsetInCU: 0x37ECD, offset: 0x37ECD, size: 0x8, addend: 0x0, symName: __ZNSt12_Vector_baseIfSaIfEED2Ev, symObjAddr: 0x359C, symBinAddr: 0x1000056E4, symSize: 0x50 }
  - { offsetInCU: 0x37F7D, offset: 0x37F7D, size: 0x8, addend: 0x0, symName: __ZNSt12_Vector_baseISt4pairISt6vectorIfSaIfEEiESaIS4_EED2Ev, symObjAddr: 0x3514, symBinAddr: 0x10000565C, symSize: 0x50 }
  - { offsetInCU: 0x37F85, offset: 0x37F85, size: 0x8, addend: 0x0, symName: __ZNSt12_Vector_baseIfSaIfEE12_Vector_implC1Ev, symObjAddr: 0x3564, symBinAddr: 0x1000056AC, symSize: 0x38 }
  - { offsetInCU: 0x37FF3, offset: 0x37FF3, size: 0x8, addend: 0x0, symName: __ZNSt6vectorISt4pairIS_IfSaIfEEiESaIS3_EED1Ev, symObjAddr: 0x34B8, symBinAddr: 0x100005600, symSize: 0x5C }
  - { offsetInCU: 0x37FFB, offset: 0x37FFB, size: 0x8, addend: 0x0, symName: __ZNSt12_Vector_baseISt4pairISt6vectorIfSaIfEEiESaIS4_EED2Ev, symObjAddr: 0x3514, symBinAddr: 0x10000565C, symSize: 0x50 }
  - { offsetInCU: 0x38081, offset: 0x38081, size: 0x8, addend: 0x0, symName: __ZNSt6vectorIhSaIhEEC1ERKS1_, symObjAddr: 0x33A4, symBinAddr: 0x1000054EC, symSize: 0x114 }
  - { offsetInCU: 0x38089, offset: 0x38089, size: 0x8, addend: 0x0, symName: __ZNSt6vectorISt4pairIS_IfSaIfEEiESaIS3_EED1Ev, symObjAddr: 0x34B8, symBinAddr: 0x100005600, symSize: 0x5C }
  - { offsetInCU: 0x381FC, offset: 0x381FC, size: 0x8, addend: 0x0, symName: __ZNSt6vectorIS_IhSaIhEESaIS1_EEC1ERKS3_, symObjAddr: 0x3290, symBinAddr: 0x1000053D8, symSize: 0x114 }
  - { offsetInCU: 0x38204, offset: 0x38204, size: 0x8, addend: 0x0, symName: __ZNSt6vectorIhSaIhEEC1ERKS1_, symObjAddr: 0x33A4, symBinAddr: 0x1000054EC, symSize: 0x114 }
  - { offsetInCU: 0x3835A, offset: 0x3835A, size: 0x8, addend: 0x0, symName: __ZNSt6vectorIhSaIhEED1Ev, symObjAddr: 0x3234, symBinAddr: 0x10000537C, symSize: 0x5C }
  - { offsetInCU: 0x38362, offset: 0x38362, size: 0x8, addend: 0x0, symName: __ZNSt6vectorIS_IhSaIhEESaIS1_EEC1ERKS3_, symObjAddr: 0x3290, symBinAddr: 0x1000053D8, symSize: 0x114 }
  - { offsetInCU: 0x38401, offset: 0x38401, size: 0x8, addend: 0x0, symName: __ZNSt6vectorIS_IhSaIhEESaIS1_EED1Ev, symObjAddr: 0x31D8, symBinAddr: 0x100005320, symSize: 0x5C }
  - { offsetInCU: 0x38409, offset: 0x38409, size: 0x8, addend: 0x0, symName: __ZNSt6vectorIhSaIhEED1Ev, symObjAddr: 0x3234, symBinAddr: 0x10000537C, symSize: 0x5C }
  - { offsetInCU: 0x3851E, offset: 0x3851E, size: 0x8, addend: 0x0, symName: __ZN5mnist12read_datasetISt6vectorS1_hhEENS_13MNIST_datasetIT_T0_IJT1_EET2_EERKNSt7__cxx1112basic_stringIcSt11char_traitsIcESaIcEEEmm, symObjAddr: 0x3198, symBinAddr: 0x1000052E0, symSize: 0x40 }
  - { offsetInCU: 0x38526, offset: 0x38526, size: 0x8, addend: 0x0, symName: __ZNSt6vectorIS_IhSaIhEESaIS1_EED1Ev, symObjAddr: 0x31D8, symBinAddr: 0x100005320, symSize: 0x5C }
  - { offsetInCU: 0x38546, offset: 0x38546, size: 0x8, addend: 0x0, symName: __ZNSt15__uniq_ptr_implIcSt14default_deleteIA_cEEC2EOS3_, symObjAddr: 0x3150, symBinAddr: 0x100005298, symSize: 0x48 }
  - { offsetInCU: 0x3854E, offset: 0x3854E, size: 0x8, addend: 0x0, symName: __ZN5mnist12read_datasetISt6vectorS1_hhEENS_13MNIST_datasetIT_T0_IJT1_EET2_EERKNSt7__cxx1112basic_stringIcSt11char_traitsIcESaIcEEEmm, symObjAddr: 0x3198, symBinAddr: 0x1000052E0, symSize: 0x40 }
  - { offsetInCU: 0x3859F, offset: 0x3859F, size: 0x8, addend: 0x0, symName: __ZNSt5tupleIJPcSt14default_deleteIA_cEEEC1EOS4_, symObjAddr: 0x3128, symBinAddr: 0x100005270, symSize: 0x28 }
  - { offsetInCU: 0x385A7, offset: 0x385A7, size: 0x8, addend: 0x0, symName: __ZNSt15__uniq_ptr_implIcSt14default_deleteIA_cEEC2EOS3_, symObjAddr: 0x3150, symBinAddr: 0x100005298, symSize: 0x48 }
  - { offsetInCU: 0x3860B, offset: 0x3860B, size: 0x8, addend: 0x0, symName: __ZNSt11_Tuple_implILm0EJPcSt14default_deleteIA_cEEEC2EOS4_, symObjAddr: 0x30F0, symBinAddr: 0x100005238, symSize: 0x38 }
  - { offsetInCU: 0x38613, offset: 0x38613, size: 0x8, addend: 0x0, symName: __ZNSt5tupleIJPcSt14default_deleteIA_cEEEC1EOS4_, symObjAddr: 0x3128, symBinAddr: 0x100005270, symSize: 0x28 }
  - { offsetInCU: 0x38765, offset: 0x38765, size: 0x8, addend: 0x0, symName: __ZNSt10unique_ptrIA_cSt14default_deleteIS0_EEC1IPcS2_vbEET_, symObjAddr: 0x30C8, symBinAddr: 0x100005210, symSize: 0x28 }
  - { offsetInCU: 0x3876D, offset: 0x3876D, size: 0x8, addend: 0x0, symName: __ZNSt11_Tuple_implILm0EJPcSt14default_deleteIA_cEEEC2EOS4_, symObjAddr: 0x30F0, symBinAddr: 0x100005238, symSize: 0x38 }
  - { offsetInCU: 0x38800, offset: 0x38800, size: 0x8, addend: 0x0, symName: __ZNSt15__uniq_ptr_dataIcSt14default_deleteIA_cELb1ELb1EECI1St15__uniq_ptr_implIcS2_EEPc, symObjAddr: 0x30A0, symBinAddr: 0x1000051E8, symSize: 0x28 }
  - { offsetInCU: 0x38808, offset: 0x38808, size: 0x8, addend: 0x0, symName: __ZNSt10unique_ptrIA_cSt14default_deleteIS0_EEC1IPcS2_vbEET_, symObjAddr: 0x30C8, symBinAddr: 0x100005210, symSize: 0x28 }
  - { offsetInCU: 0x387E5, offset: 0x387E5, size: 0x8, addend: 0x0, symName: __ZNKSt4fposI11__mbstate_tEcvxEv, symObjAddr: 0x3088, symBinAddr: 0x1000051D0, symSize: 0x18 }
  - { offsetInCU: 0x387ED, offset: 0x387ED, size: 0x8, addend: 0x0, symName: __ZNSt15__uniq_ptr_dataIcSt14default_deleteIA_cELb1ELb1EECI1St15__uniq_ptr_implIcS2_EEPc, symObjAddr: 0x30A0, symBinAddr: 0x1000051E8, symSize: 0x28 }
  - { offsetInCU: 0x38885, offset: 0x38885, size: 0x8, addend: 0x0, symName: __ZNSt10unique_ptrIA_cSt14default_deleteIS0_EED1Ev, symObjAddr: 0x302C, symBinAddr: 0x100005174, symSize: 0x5C }
  - { offsetInCU: 0x3888D, offset: 0x3888D, size: 0x8, addend: 0x0, symName: __ZNKSt4fposI11__mbstate_tEcvxEv, symObjAddr: 0x3088, symBinAddr: 0x1000051D0, symSize: 0x18 }
  - { offsetInCU: 0x38921, offset: 0x38921, size: 0x8, addend: 0x0, symName: __ZNSt10unique_ptrIA_cSt14default_deleteIS0_EEC1IS2_vEEv, symObjAddr: 0x3004, symBinAddr: 0x10000514C, symSize: 0x28 }
  - { offsetInCU: 0x38929, offset: 0x38929, size: 0x8, addend: 0x0, symName: __ZNSt10unique_ptrIA_cSt14default_deleteIS0_EED1Ev, symObjAddr: 0x302C, symBinAddr: 0x100005174, symSize: 0x5C }
  - { offsetInCU: 0x3899C, offset: 0x3899C, size: 0x8, addend: 0x0, symName: __ZNSt15__uniq_ptr_dataIcSt14default_deleteIA_cELb1ELb1EECI1St15__uniq_ptr_implIcS2_EEv, symObjAddr: 0x2FE4, symBinAddr: 0x10000512C, symSize: 0x20 }
  - { offsetInCU: 0x389A4, offset: 0x389A4, size: 0x8, addend: 0x0, symName: __ZNSt10unique_ptrIA_cSt14default_deleteIS0_EEC1IS2_vEEv, symObjAddr: 0x3004, symBinAddr: 0x10000514C, symSize: 0x28 }
  - { offsetInCU: 0x389C5, offset: 0x389C5, size: 0x8, addend: 0x0, symName: __ZNSt15__uniq_ptr_implIcSt14default_deleteIA_cEEC2Ev, symObjAddr: 0x2FC4, symBinAddr: 0x10000510C, symSize: 0x20 }
  - { offsetInCU: 0x389CD, offset: 0x389CD, size: 0x8, addend: 0x0, symName: __ZNSt15__uniq_ptr_dataIcSt14default_deleteIA_cELb1ELb1EECI1St15__uniq_ptr_implIcS2_EEv, symObjAddr: 0x2FE4, symBinAddr: 0x10000512C, symSize: 0x20 }
  - { offsetInCU: 0x389CA, offset: 0x389CA, size: 0x8, addend: 0x0, symName: __ZNKSt10unique_ptrIA_cSt14default_deleteIS0_EE3getEv, symObjAddr: 0x2FA8, symBinAddr: 0x1000050F0, symSize: 0x1C }
  - { offsetInCU: 0x389D2, offset: 0x389D2, size: 0x8, addend: 0x0, symName: __ZNSt15__uniq_ptr_implIcSt14default_deleteIA_cEEC2Ev, symObjAddr: 0x2FC4, symBinAddr: 0x10000510C, symSize: 0x20 }
  - { offsetInCU: 0x38A93, offset: 0x38A93, size: 0x8, addend: 0x0, symName: __ZNSt7__cxx1112basic_stringIcSt11char_traitsIcESaIcEEC1IS3_EEPKcRKS3_, symObjAddr: 0x2F0C, symBinAddr: 0x100005054, symSize: 0x9C }
  - { offsetInCU: 0x38A9B, offset: 0x38A9B, size: 0x8, addend: 0x0, symName: __ZNKSt10unique_ptrIA_cSt14default_deleteIS0_EE3getEv, symObjAddr: 0x2FA8, symBinAddr: 0x1000050F0, symSize: 0x1C }
  - { offsetInCU: 0x38B67, offset: 0x38B67, size: 0x8, addend: 0x0, symName: __ZStplIcSt11char_traitsIcESaIcEENSt7__cxx1112basic_stringIT_T0_T1_EERKS8_PKS5_, symObjAddr: 0x2E60, symBinAddr: 0x100004FA8, symSize: 0xAC }
  - { offsetInCU: 0x38B6F, offset: 0x38B6F, size: 0x8, addend: 0x0, symName: __ZNSt7__cxx1112basic_stringIcSt11char_traitsIcESaIcEEC1IS3_EEPKcRKS3_, symObjAddr: 0x2F0C, symBinAddr: 0x100005054, symSize: 0x9C }
  - { offsetInCU: 0x38BCA, offset: 0x38BCA, size: 0x8, addend: 0x0, symName: __ZSt3maxImERKT_S2_S2_, symObjAddr: 0x2E28, symBinAddr: 0x100004F70, symSize: 0x38 }
  - { offsetInCU: 0x38BD2, offset: 0x38BD2, size: 0x8, addend: 0x0, symName: __ZStplIcSt11char_traitsIcESaIcEENSt7__cxx1112basic_stringIT_T0_T1_EERKS8_PKS5_, symObjAddr: 0x2E60, symBinAddr: 0x100004FA8, symSize: 0xAC }
  - { offsetInCU: 0x38C6D, offset: 0x38C6D, size: 0x8, addend: 0x0, symName: __ZNSt7__cxx1112basic_stringIcSt11char_traitsIcESaIcEE12_Alloc_hiderD1Ev, symObjAddr: 0x2DFC, symBinAddr: 0x100004F44, symSize: 0x2C }
  - { offsetInCU: 0x38C75, offset: 0x38C75, size: 0x8, addend: 0x0, symName: __ZSt3maxImERKT_S2_S2_, symObjAddr: 0x2E28, symBinAddr: 0x100004F70, symSize: 0x38 }
  - { offsetInCU: 0x38CC2, offset: 0x38CC2, size: 0x8, addend: 0x0, symName: __ZN9__gnu_cxx11char_traitsIcE6lengthEPKc, symObjAddr: 0x2DA0, symBinAddr: 0x100004EE8, symSize: 0x5C }
  - { offsetInCU: 0x38CCA, offset: 0x38CCA, size: 0x8, addend: 0x0, symName: __ZNSt7__cxx1112basic_stringIcSt11char_traitsIcESaIcEE12_Alloc_hiderD1Ev, symObjAddr: 0x2DFC, symBinAddr: 0x100004F44, symSize: 0x2C }
  - { offsetInCU: 0x38D11, offset: 0x38D11, size: 0x8, addend: 0x0, symName: _main, symObjAddr: 0x2B14, symBinAddr: 0x100004C5C, symSize: 0x28C }
  - { offsetInCU: 0x38D19, offset: 0x38D19, size: 0x8, addend: 0x0, symName: __ZN9__gnu_cxx11char_traitsIcE6lengthEPKc, symObjAddr: 0x2DA0, symBinAddr: 0x100004EE8, symSize: 0x5C }
  - { offsetInCU: 0x38F46, offset: 0x38F46, size: 0x8, addend: 0x0, symName: __ZN7ConvNetD1Ev, symObjAddr: 0x2A9C, symBinAddr: 0x100004BE4, symSize: 0x78 }
  - { offsetInCU: 0x38F4E, offset: 0x38F4E, size: 0x8, addend: 0x0, symName: _main, symObjAddr: 0x2B14, symBinAddr: 0x100004C5C, symSize: 0x28C }
  - { offsetInCU: 0x38F66, offset: 0x38F66, size: 0x8, addend: 0x0, symName: __ZN7ConvNet7predictEPf, symObjAddr: 0x29F8, symBinAddr: 0x100004B40, symSize: 0xA4 }
  - { offsetInCU: 0x38F6E, offset: 0x38F6E, size: 0x8, addend: 0x0, symName: __ZN7ConvNetD1Ev, symObjAddr: 0x2A9C, symBinAddr: 0x100004BE4, symSize: 0x78 }
  - { offsetInCU: 0x39007, offset: 0x39007, size: 0x8, addend: 0x0, symName: __ZN7ConvNet7forwardEPf, symObjAddr: 0x2904, symBinAddr: 0x100004A4C, symSize: 0xF4 }
  - { offsetInCU: 0x3900F, offset: 0x3900F, size: 0x8, addend: 0x0, symName: __ZN7ConvNet7predictEPf, symObjAddr: 0x29F8, symBinAddr: 0x100004B40, symSize: 0xA4 }
  - { offsetInCU: 0x3909A, offset: 0x3909A, size: 0x8, addend: 0x0, symName: __ZN7ConvNetC1Ei, symObjAddr: 0x248C, symBinAddr: 0x1000045D4, symSize: 0x478 }
  - { offsetInCU: 0x390A2, offset: 0x390A2, size: 0x8, addend: 0x0, symName: __ZN7ConvNet7forwardEPf, symObjAddr: 0x2904, symBinAddr: 0x100004A4C, symSize: 0xF4 }
  - { offsetInCU: 0x3913B, offset: 0x3913B, size: 0x8, addend: 0x0, symName: __ZNSt6vectorIiSaIiEEC1Ev, symObjAddr: 0x246C, symBinAddr: 0x1000045B4, symSize: 0x20 }
  - { offsetInCU: 0x39143, offset: 0x39143, size: 0x8, addend: 0x0, symName: __ZN7ConvNetC1Ei, symObjAddr: 0x248C, symBinAddr: 0x1000045D4, symSize: 0x478 }
  - { offsetInCU: 0x3918D, offset: 0x3918D, size: 0x8, addend: 0x0, symName: __ZNSt12_Vector_baseIiSaIiEEC2Ev, symObjAddr: 0x244C, symBinAddr: 0x100004594, symSize: 0x20 }
  - { offsetInCU: 0x39195, offset: 0x39195, size: 0x8, addend: 0x0, symName: __ZNSt6vectorIiSaIiEEC1Ev, symObjAddr: 0x246C, symBinAddr: 0x1000045B4, symSize: 0x20 }
  - { offsetInCU: 0x391F8, offset: 0x391F8, size: 0x8, addend: 0x0, symName: __ZNSt12_Vector_baseIiSaIiEE12_Vector_implD1Ev, symObjAddr: 0x2420, symBinAddr: 0x100004568, symSize: 0x2C }
  - { offsetInCU: 0x39200, offset: 0x39200, size: 0x8, addend: 0x0, symName: __ZNSt12_Vector_baseIiSaIiEEC2Ev, symObjAddr: 0x244C, symBinAddr: 0x100004594, symSize: 0x20 }
  - { offsetInCU: 0x39222, offset: 0x39222, size: 0x8, addend: 0x0, symName: __ZN7SOFTMAX7forwardEPf, symObjAddr: 0x22BC, symBinAddr: 0x100004404, symSize: 0x164 }
  - { offsetInCU: 0x3922A, offset: 0x3922A, size: 0x8, addend: 0x0, symName: __ZNSt12_Vector_baseIiSaIiEE12_Vector_implD1Ev, symObjAddr: 0x2420, symBinAddr: 0x100004568, symSize: 0x2C }
  - { offsetInCU: 0x39343, offset: 0x39343, size: 0x8, addend: 0x0, symName: __ZN7SOFTMAX5indexEiiii, symObjAddr: 0x2238, symBinAddr: 0x100004380, symSize: 0x84 }
  - { offsetInCU: 0x3934B, offset: 0x3934B, size: 0x8, addend: 0x0, symName: __ZN7SOFTMAX7forwardEPf, symObjAddr: 0x22BC, symBinAddr: 0x100004404, symSize: 0x164 }
  - { offsetInCU: 0x393FC, offset: 0x393FC, size: 0x8, addend: 0x0, symName: __ZN7SOFTMAXD1Ev, symObjAddr: 0x21CC, symBinAddr: 0x100004314, symSize: 0x6C }
  - { offsetInCU: 0x39404, offset: 0x39404, size: 0x8, addend: 0x0, symName: __ZN7SOFTMAX5indexEiiii, symObjAddr: 0x2238, symBinAddr: 0x100004380, symSize: 0x84 }
  - { offsetInCU: 0x39469, offset: 0x39469, size: 0x8, addend: 0x0, symName: __ZN7SOFTMAXC1ERSt6vectorIiSaIiEE, symObjAddr: 0x2030, symBinAddr: 0x100004178, symSize: 0x19C }
  - { offsetInCU: 0x39471, offset: 0x39471, size: 0x8, addend: 0x0, symName: __ZN7SOFTMAXD1Ev, symObjAddr: 0x21CC, symBinAddr: 0x100004314, symSize: 0x6C }
  - { offsetInCU: 0x394B0, offset: 0x394B0, size: 0x8, addend: 0x0, symName: __ZN7SOFTMAXC1Ev, symObjAddr: 0x2004, symBinAddr: 0x10000414C, symSize: 0x2C }
  - { offsetInCU: 0x394B8, offset: 0x394B8, size: 0x8, addend: 0x0, symName: __ZN7SOFTMAXC1ERSt6vectorIiSaIiEE, symObjAddr: 0x2030, symBinAddr: 0x100004178, symSize: 0x19C }
  - { offsetInCU: 0x394D0, offset: 0x394D0, size: 0x8, addend: 0x0, symName: __ZN3CNN7forwardEPf, symObjAddr: 0x1CE0, symBinAddr: 0x100003E28, symSize: 0x324 }
  - { offsetInCU: 0x394D8, offset: 0x394D8, size: 0x8, addend: 0x0, symName: __ZN7SOFTMAXC1Ev, symObjAddr: 0x2004, symBinAddr: 0x10000414C, symSize: 0x2C }
  - { offsetInCU: 0x39705, offset: 0x39705, size: 0x8, addend: 0x0, symName: __ZN3CNND1Ev, symObjAddr: 0x1C3C, symBinAddr: 0x100003D84, symSize: 0xA4 }
  - { offsetInCU: 0x3970D, offset: 0x3970D, size: 0x8, addend: 0x0, symName: __ZN3CNN7forwardEPf, symObjAddr: 0x1CE0, symBinAddr: 0x100003E28, symSize: 0x324 }
  - { offsetInCU: 0x3982E, offset: 0x3982E, size: 0x8, addend: 0x0, symName: __ZN3CNNC1EiiiRSt6vectorIiSaIiEE, symObjAddr: 0x1838, symBinAddr: 0x100003980, symSize: 0x404 }
  - { offsetInCU: 0x39836, offset: 0x39836, size: 0x8, addend: 0x0, symName: __ZN3CNND1Ev, symObjAddr: 0x1C3C, symBinAddr: 0x100003D84, symSize: 0xA4 }
  - { offsetInCU: 0x399FF, offset: 0x399FF, size: 0x8, addend: 0x0, symName: __ZN3CNNC1Ev, symObjAddr: 0x17FC, symBinAddr: 0x100003944, symSize: 0x3C }
  - { offsetInCU: 0x39A07, offset: 0x39A07, size: 0x8, addend: 0x0, symName: __ZN3CNNC1EiiiRSt6vectorIiSaIiEE, symObjAddr: 0x1838, symBinAddr: 0x100003980, symSize: 0x404 }
  - { offsetInCU: 0x39A23, offset: 0x39A23, size: 0x8, addend: 0x0, symName: __ZN3CNN12index_filterEiiii, symObjAddr: 0x1778, symBinAddr: 0x1000038C0, symSize: 0x84 }
  - { offsetInCU: 0x39A2B, offset: 0x39A2B, size: 0x8, addend: 0x0, symName: __ZN3CNNC1Ev, symObjAddr: 0x17FC, symBinAddr: 0x100003944, symSize: 0x3C }
  - { offsetInCU: 0x39AA2, offset: 0x39AA2, size: 0x8, addend: 0x0, symName: __ZN3CNN9index_outEiiii, symObjAddr: 0x16F4, symBinAddr: 0x10000383C, symSize: 0x84 }
  - { offsetInCU: 0x39AAA, offset: 0x39AAA, size: 0x8, addend: 0x0, symName: __ZN3CNN12index_filterEiiii, symObjAddr: 0x1778, symBinAddr: 0x1000038C0, symSize: 0x84 }
  - { offsetInCU: 0x39B21, offset: 0x39B21, size: 0x8, addend: 0x0, symName: __ZN3CNN8index_inEiiii, symObjAddr: 0x1670, symBinAddr: 0x1000037B8, symSize: 0x84 }
  - { offsetInCU: 0x39B29, offset: 0x39B29, size: 0x8, addend: 0x0, symName: __ZN3CNN9index_outEiiii, symObjAddr: 0x16F4, symBinAddr: 0x10000383C, symSize: 0x84 }
  - { offsetInCU: 0x39BA0, offset: 0x39BA0, size: 0x8, addend: 0x0, symName: __ZN7MAXPOOL7forwardEPf, symObjAddr: 0x1230, symBinAddr: 0x100003378, symSize: 0x440 }
  - { offsetInCU: 0x39BA8, offset: 0x39BA8, size: 0x8, addend: 0x0, symName: __ZN3CNN8index_inEiiii, symObjAddr: 0x1670, symBinAddr: 0x1000037B8, symSize: 0x84 }
  - { offsetInCU: 0x39DF2, offset: 0x39DF2, size: 0x8, addend: 0x0, symName: __ZN7MAXPOOL9index_outEiiii, symObjAddr: 0x115C, symBinAddr: 0x1000032A4, symSize: 0xD4 }
  - { offsetInCU: 0x39DFA, offset: 0x39DFA, size: 0x8, addend: 0x0, symName: __ZN7MAXPOOL7forwardEPf, symObjAddr: 0x1230, symBinAddr: 0x100003378, symSize: 0x440 }
  - { offsetInCU: 0x39E71, offset: 0x39E71, size: 0x8, addend: 0x0, symName: __ZN7MAXPOOL5indexEiiii, symObjAddr: 0x10D8, symBinAddr: 0x100003220, symSize: 0x84 }
  - { offsetInCU: 0x39E79, offset: 0x39E79, size: 0x8, addend: 0x0, symName: __ZN7MAXPOOL9index_outEiiii, symObjAddr: 0x115C, symBinAddr: 0x1000032A4, symSize: 0xD4 }
  - { offsetInCU: 0x39F2A, offset: 0x39F2A, size: 0x8, addend: 0x0, symName: __ZN7MAXPOOLD1Ev, symObjAddr: 0x1050, symBinAddr: 0x100003198, symSize: 0x88 }
  - { offsetInCU: 0x39F32, offset: 0x39F32, size: 0x8, addend: 0x0, symName: __ZN7MAXPOOL5indexEiiii, symObjAddr: 0x10D8, symBinAddr: 0x100003220, symSize: 0x84 }
  - { offsetInCU: 0x39F97, offset: 0x39F97, size: 0x8, addend: 0x0, symName: __ZN7MAXPOOLC1ERSt6vectorIiSaIiEE, symObjAddr: 0xE54, symBinAddr: 0x100002F9C, symSize: 0x1FC }
  - { offsetInCU: 0x39F9F, offset: 0x39F9F, size: 0x8, addend: 0x0, symName: __ZN7MAXPOOLD1Ev, symObjAddr: 0x1050, symBinAddr: 0x100003198, symSize: 0x88 }
  - { offsetInCU: 0x39FDE, offset: 0x39FDE, size: 0x8, addend: 0x0, symName: __ZN7MAXPOOLC1Ev, symObjAddr: 0xE20, symBinAddr: 0x100002F68, symSize: 0x34 }
  - { offsetInCU: 0x39FE6, offset: 0x39FE6, size: 0x8, addend: 0x0, symName: __ZN7MAXPOOLC1ERSt6vectorIiSaIiEE, symObjAddr: 0xE54, symBinAddr: 0x100002F9C, symSize: 0x1FC }
  - { offsetInCU: 0x39FFE, offset: 0x39FFE, size: 0x8, addend: 0x0, symName: __ZN4RELU7forwardEPf, symObjAddr: 0xD48, symBinAddr: 0x100002E90, symSize: 0xD8 }
  - { offsetInCU: 0x3A006, offset: 0x3A006, size: 0x8, addend: 0x0, symName: __ZN7MAXPOOLC1Ev, symObjAddr: 0xE20, symBinAddr: 0x100002F68, symSize: 0x34 }
  - { offsetInCU: 0x3A09D, offset: 0x3A09D, size: 0x8, addend: 0x0, symName: __ZN4RELUD1Ev, symObjAddr: 0xCDC, symBinAddr: 0x100002E24, symSize: 0x6C }
  - { offsetInCU: 0x3A0A5, offset: 0x3A0A5, size: 0x8, addend: 0x0, symName: __ZN4RELU7forwardEPf, symObjAddr: 0xD48, symBinAddr: 0x100002E90, symSize: 0xD8 }
  - { offsetInCU: 0x3A0F9, offset: 0x3A0F9, size: 0x8, addend: 0x0, symName: __ZN4RELUC1Ei, symObjAddr: 0xC18, symBinAddr: 0x100002D60, symSize: 0xC4 }
  - { offsetInCU: 0x3A101, offset: 0x3A101, size: 0x8, addend: 0x0, symName: __ZN4RELUD1Ev, symObjAddr: 0xCDC, symBinAddr: 0x100002E24, symSize: 0x6C }
  - { offsetInCU: 0x3A151, offset: 0x3A151, size: 0x8, addend: 0x0, symName: __ZN4RELUC1Ev, symObjAddr: 0xBEC, symBinAddr: 0x100002D34, symSize: 0x2C }
  - { offsetInCU: 0x3A159, offset: 0x3A159, size: 0x8, addend: 0x0, symName: __ZN4RELUC1Ei, symObjAddr: 0xC18, symBinAddr: 0x100002D60, symSize: 0xC4 }
  - { offsetInCU: 0x3A1CE, offset: 0x3A1CE, size: 0x8, addend: 0x0, symName: __Z17get_training_dataN5mnist13MNIST_datasetISt6vectorS1_IhSaIhEEhEE, symObjAddr: 0x9FC, symBinAddr: 0x100002B44, symSize: 0x1F0 }
  - { offsetInCU: 0x3A1D6, offset: 0x3A1D6, size: 0x8, addend: 0x0, symName: __ZN4RELUC1Ev, symObjAddr: 0xBEC, symBinAddr: 0x100002D34, symSize: 0x2C }
  - { offsetInCU: 0x3A2C3, offset: 0x3A2C3, size: 0x8, addend: 0x0, symName: __ZNSt4pairISt6vectorIfSaIfEEiED1Ev, symObjAddr: 0x9DC, symBinAddr: 0x100002B24, symSize: 0x20 }
  - { offsetInCU: 0x3A2CB, offset: 0x3A2CB, size: 0x8, addend: 0x0, symName: __Z17get_training_dataN5mnist13MNIST_datasetISt6vectorS1_IhSaIhEEhEE, symObjAddr: 0x9FC, symBinAddr: 0x100002B44, symSize: 0x1F0 }
  - { offsetInCU: 0x3A334, offset: 0x3A334, size: 0x8, addend: 0x0, symName: __ZNSt4pairISt6vectorIfSaIfEEiEC1IS2_iLb1EEEv, symObjAddr: 0x9A8, symBinAddr: 0x100002AF0, symSize: 0x34 }
  - { offsetInCU: 0x3A33C, offset: 0x3A33C, size: 0x8, addend: 0x0, symName: __ZNSt4pairISt6vectorIfSaIfEEiED1Ev, symObjAddr: 0x9DC, symBinAddr: 0x100002B24, symSize: 0x20 }
  - { offsetInCU: 0x3A39C, offset: 0x3A39C, size: 0x8, addend: 0x0, symName: __ZNSt6vectorISt4pairIS_IfSaIfEEiESaIS3_EEC1Ev, symObjAddr: 0x988, symBinAddr: 0x100002AD0, symSize: 0x20 }
  - { offsetInCU: 0x3A3A4, offset: 0x3A3A4, size: 0x8, addend: 0x0, symName: __ZNSt4pairISt6vectorIfSaIfEEiEC1IS2_iLb1EEEv, symObjAddr: 0x9A8, symBinAddr: 0x100002AF0, symSize: 0x34 }
  - { offsetInCU: 0x3A3F5, offset: 0x3A3F5, size: 0x8, addend: 0x0, symName: __ZNSt12_Vector_baseISt4pairISt6vectorIfSaIfEEiESaIS4_EEC2Ev, symObjAddr: 0x968, symBinAddr: 0x100002AB0, symSize: 0x20 }
  - { offsetInCU: 0x3A3FD, offset: 0x3A3FD, size: 0x8, addend: 0x0, symName: __ZNSt6vectorISt4pairIS_IfSaIfEEiESaIS3_EEC1Ev, symObjAddr: 0x988, symBinAddr: 0x100002AD0, symSize: 0x20 }
  - { offsetInCU: 0x3A433, offset: 0x3A433, size: 0x8, addend: 0x0, symName: __Z23convert_to_float_vectorRSt6vectorIhSaIhEE, symObjAddr: 0x8B0, symBinAddr: 0x1000029F8, symSize: 0xB8 }
  - { offsetInCU: 0x3A43B, offset: 0x3A43B, size: 0x8, addend: 0x0, symName: __ZNSt12_Vector_baseISt4pairISt6vectorIfSaIfEEiESaIS4_EEC2Ev, symObjAddr: 0x968, symBinAddr: 0x100002AB0, symSize: 0x20 }
  - { offsetInCU: 0x3A4A0, offset: 0x3A4A0, size: 0x8, addend: 0x0, symName: __ZNSt6vectorIfSaIfEEC1EOS1_, symObjAddr: 0x888, symBinAddr: 0x1000029D0, symSize: 0x28 }
  - { offsetInCU: 0x3A4A8, offset: 0x3A4A8, size: 0x8, addend: 0x0, symName: __Z23convert_to_float_vectorRSt6vectorIhSaIhEE, symObjAddr: 0x8B0, symBinAddr: 0x1000029F8, symSize: 0xB8 }
  - { offsetInCU: 0x3A508, offset: 0x3A508, size: 0x8, addend: 0x0, symName: __ZNSt12_Vector_baseIfSaIfEEC2EOS1_, symObjAddr: 0x860, symBinAddr: 0x1000029A8, symSize: 0x28 }
  - { offsetInCU: 0x3A510, offset: 0x3A510, size: 0x8, addend: 0x0, symName: __ZNSt6vectorIfSaIfEEC1EOS1_, symObjAddr: 0x888, symBinAddr: 0x1000029D0, symSize: 0x28 }
  - { offsetInCU: 0x3A556, offset: 0x3A556, size: 0x8, addend: 0x0, symName: __ZNSt6vectorIfSaIfEEC1Ev, symObjAddr: 0x840, symBinAddr: 0x100002988, symSize: 0x20 }
  - { offsetInCU: 0x3A55E, offset: 0x3A55E, size: 0x8, addend: 0x0, symName: __ZNSt12_Vector_baseIfSaIfEEC2EOS1_, symObjAddr: 0x860, symBinAddr: 0x1000029A8, symSize: 0x28 }
  - { offsetInCU: 0x3A5A8, offset: 0x3A5A8, size: 0x8, addend: 0x0, symName: __ZNSt12_Vector_baseIfSaIfEEC2Ev, symObjAddr: 0x820, symBinAddr: 0x100002968, symSize: 0x20 }
  - { offsetInCU: 0x3A5B0, offset: 0x3A5B0, size: 0x8, addend: 0x0, symName: __ZNSt6vectorIfSaIfEEC1Ev, symObjAddr: 0x840, symBinAddr: 0x100002988, symSize: 0x20 }
  - { offsetInCU: 0x3A613, offset: 0x3A613, size: 0x8, addend: 0x0, symName: __ZNSt12_Vector_baseIfSaIfEE12_Vector_implD1Ev, symObjAddr: 0x7F4, symBinAddr: 0x10000293C, symSize: 0x2C }
  - { offsetInCU: 0x3A61B, offset: 0x3A61B, size: 0x8, addend: 0x0, symName: __ZNSt12_Vector_baseIfSaIfEEC2Ev, symObjAddr: 0x820, symBinAddr: 0x100002968, symSize: 0x20 }
  - { offsetInCU: 0x3A64F, offset: 0x3A64F, size: 0x8, addend: 0x0, symName: __Z4readv, symObjAddr: 0x700, symBinAddr: 0x100002848, symSize: 0xF4 }
  - { offsetInCU: 0x3A657, offset: 0x3A657, size: 0x8, addend: 0x0, symName: __ZNSt12_Vector_baseIfSaIfEE12_Vector_implD1Ev, symObjAddr: 0x7F4, symBinAddr: 0x10000293C, symSize: 0x2C }
  - { offsetInCU: 0x3A79D, offset: 0x3A79D, size: 0x8, addend: 0x0, symName: __ZNSt12_Vector_baseISt4pairISt6vectorIfSaIfEEiESaIS4_EE12_Vector_implD1Ev, symObjAddr: 0x6D4, symBinAddr: 0x10000281C, symSize: 0x2C }
  - { offsetInCU: 0x3A7A5, offset: 0x3A7A5, size: 0x8, addend: 0x0, symName: __Z4readv, symObjAddr: 0x700, symBinAddr: 0x100002848, symSize: 0xF4 }
  - { offsetInCU: 0x3A80E, offset: 0x3A80E, size: 0x8, addend: 0x0, symName: __ZNSt4pairISt6vectorIS_IS0_IfSaIfEEiESaIS3_EES5_ED1Ev, symObjAddr: 0x6A8, symBinAddr: 0x1000027F0, symSize: 0x2C }
  - { offsetInCU: 0x3A816, offset: 0x3A816, size: 0x8, addend: 0x0, symName: __ZNSt12_Vector_baseISt4pairISt6vectorIfSaIfEEiESaIS4_EE12_Vector_implD1Ev, symObjAddr: 0x6D4, symBinAddr: 0x10000281C, symSize: 0x2C }
  - { offsetInCU: 0x3A871, offset: 0x3A871, size: 0x8, addend: 0x0, symName: __ZN5mnist13MNIST_datasetISt6vectorS1_IhSaIhEEhEC1ERKS4_, symObjAddr: 0x5E8, symBinAddr: 0x100002730, symSize: 0xC0 }
  - { offsetInCU: 0x3A879, offset: 0x3A879, size: 0x8, addend: 0x0, symName: __ZNSt4pairISt6vectorIS_IS0_IfSaIfEEiESaIS3_EES5_ED1Ev, symObjAddr: 0x6A8, symBinAddr: 0x1000027F0, symSize: 0x2C }
  - { offsetInCU: 0x3A8D7, offset: 0x3A8D7, size: 0x8, addend: 0x0, symName: __ZN5mnist13MNIST_datasetISt6vectorS1_IhSaIhEEhED1Ev, symObjAddr: 0x5A4, symBinAddr: 0x1000026EC, symSize: 0x44 }
  - { offsetInCU: 0x3A8DF, offset: 0x3A8DF, size: 0x8, addend: 0x0, symName: __ZN5mnist13MNIST_datasetISt6vectorS1_IhSaIhEEhEC1ERKS4_, symObjAddr: 0x5E8, symBinAddr: 0x100002730, symSize: 0xC0 }
  - { offsetInCU: 0x3A93A, offset: 0x3A93A, size: 0x8, addend: 0x0, symName: __ZN5mnist15read_mnist_fileERKNSt7__cxx1112basic_stringIcSt11char_traitsIcESaIcEEEj, symObjAddr: 0x2F0, symBinAddr: 0x100002438, symSize: 0x2B4 }
  - { offsetInCU: 0x3A942, offset: 0x3A942, size: 0x8, addend: 0x0, symName: __ZN5mnist13MNIST_datasetISt6vectorS1_IhSaIhEEhED1Ev, symObjAddr: 0x5A4, symBinAddr: 0x1000026EC, symSize: 0x44 }
  - { offsetInCU: 0x3AA2B, offset: 0x3AA2B, size: 0x8, addend: 0x0, symName: __ZNSt10unique_ptrIA_cSt14default_deleteIS0_EEC1EOS3_, symObjAddr: 0x2C8, symBinAddr: 0x100002410, symSize: 0x28 }
  - { offsetInCU: 0x3AA33, offset: 0x3AA33, size: 0x8, addend: 0x0, symName: __ZN5mnist15read_mnist_fileERKNSt7__cxx1112basic_stringIcSt11char_traitsIcESaIcEEEj, symObjAddr: 0x2F0, symBinAddr: 0x100002438, symSize: 0x2B4 }
  - { offsetInCU: 0x3AA97, offset: 0x3AA97, size: 0x8, addend: 0x0, symName: __ZNSt15__uniq_ptr_dataIcSt14default_deleteIA_cELb1ELb1EEC1EOS3_, symObjAddr: 0x2A0, symBinAddr: 0x1000023E8, symSize: 0x28 }
  - { offsetInCU: 0x3AA9F, offset: 0x3AA9F, size: 0x8, addend: 0x0, symName: __ZNSt10unique_ptrIA_cSt14default_deleteIS0_EEC1EOS3_, symObjAddr: 0x2C8, symBinAddr: 0x100002410, symSize: 0x28 }
  - { offsetInCU: 0x3AAE9, offset: 0x3AAE9, size: 0x8, addend: 0x0, symName: __ZN5mnist11read_headerERKSt10unique_ptrIA_cSt14default_deleteIS1_EEm, symObjAddr: 0x230, symBinAddr: 0x100002378, symSize: 0x70 }
  - { offsetInCU: 0x3AAF1, offset: 0x3AAF1, size: 0x8, addend: 0x0, symName: __ZNSt15__uniq_ptr_dataIcSt14default_deleteIA_cELb1ELb1EEC1EOS3_, symObjAddr: 0x2A0, symBinAddr: 0x1000023E8, symSize: 0x28 }
  - { offsetInCU: 0x3AB0D, offset: 0x3AB0D, size: 0x8, addend: 0x0, symName: __ZNSt13random_deviceclEv, symObjAddr: 0x214, symBinAddr: 0x10000235C, symSize: 0x1C }
  - { offsetInCU: 0x3AB15, offset: 0x3AB15, size: 0x8, addend: 0x0, symName: __ZN5mnist11read_headerERKSt10unique_ptrIA_cSt14default_deleteIS1_EEm, symObjAddr: 0x230, symBinAddr: 0x100002378, symSize: 0x70 }
  - { offsetInCU: 0x3AB7F, offset: 0x3AB7F, size: 0x8, addend: 0x0, symName: __ZNSt13random_deviceD1Ev, symObjAddr: 0x1F4, symBinAddr: 0x10000233C, symSize: 0x20 }
  - { offsetInCU: 0x3AB87, offset: 0x3AB87, size: 0x8, addend: 0x0, symName: __ZNSt13random_deviceclEv, symObjAddr: 0x214, symBinAddr: 0x10000235C, symSize: 0x1C }
  - { offsetInCU: 0x3ABCA, offset: 0x3ABCA, size: 0x8, addend: 0x0, symName: __ZNSt13random_deviceC1Ev, symObjAddr: 0x15C, symBinAddr: 0x1000022A4, symSize: 0x98 }
  - { offsetInCU: 0x3ABD2, offset: 0x3ABD2, size: 0x8, addend: 0x0, symName: __ZNSt13random_deviceD1Ev, symObjAddr: 0x1F4, symBinAddr: 0x10000233C, symSize: 0x20 }
  - { offsetInCU: 0x3AC98, offset: 0x3AC98, size: 0x8, addend: 0x0, symName: __ZSt9nextafterff, symObjAddr: 0x138, symBinAddr: 0x100002280, symSize: 0x24 }
  - { offsetInCU: 0x3ACA0, offset: 0x3ACA0, size: 0x8, addend: 0x0, symName: __ZNSt13random_deviceC1Ev, symObjAddr: 0x15C, symBinAddr: 0x1000022A4, symSize: 0x98 }
  - { offsetInCU: 0x3ACDE, offset: 0x3ACDE, size: 0x8, addend: 0x0, symName: __ZSt3loge, symObjAddr: 0x11C, symBinAddr: 0x100002264, symSize: 0x1C }
  - { offsetInCU: 0x3ACE6, offset: 0x3ACE6, size: 0x8, addend: 0x0, symName: __ZSt9nextafterff, symObjAddr: 0x138, symBinAddr: 0x100002280, symSize: 0x24 }
  - { offsetInCU: 0x3AD1D, offset: 0x3AD1D, size: 0x8, addend: 0x0, symName: __ZSt3logf, symObjAddr: 0x100, symBinAddr: 0x100002248, symSize: 0x1C }
  - { offsetInCU: 0x3AD25, offset: 0x3AD25, size: 0x8, addend: 0x0, symName: __ZSt3loge, symObjAddr: 0x11C, symBinAddr: 0x100002264, symSize: 0x1C }
  - { offsetInCU: 0x3AD5B, offset: 0x3AD5B, size: 0x8, addend: 0x0, symName: __ZSt3expf, symObjAddr: 0xE4, symBinAddr: 0x10000222C, symSize: 0x1C }
  - { offsetInCU: 0x3AD63, offset: 0x3AD63, size: 0x8, addend: 0x0, symName: __ZSt3logf, symObjAddr: 0x100, symBinAddr: 0x100002248, symSize: 0x1C }
  - { offsetInCU: 0x3ADB0, offset: 0x3ADB0, size: 0x8, addend: 0x0, symName: __ZStorSt13_Ios_OpenmodeS_, symObjAddr: 0xC4, symBinAddr: 0x10000220C, symSize: 0x20 }
  - { offsetInCU: 0x3ADB8, offset: 0x3ADB8, size: 0x8, addend: 0x0, symName: __ZSt3expf, symObjAddr: 0xE4, symBinAddr: 0x10000222C, symSize: 0x1C }
  - { offsetInCU: 0x3AE0C, offset: 0x3AE0C, size: 0x8, addend: 0x0, symName: __ZSt3minImERKT_S2_S2_, symObjAddr: 0x8C, symBinAddr: 0x1000021D4, symSize: 0x38 }
  - { offsetInCU: 0x3AE14, offset: 0x3AE14, size: 0x8, addend: 0x0, symName: __ZStorSt13_Ios_OpenmodeS_, symObjAddr: 0xC4, symBinAddr: 0x10000220C, symSize: 0x20 }
  - { offsetInCU: 0x3AE3B, offset: 0x3AE3B, size: 0x8, addend: 0x0, symName: __ZNSt11char_traitsIcE6lengthEPKc, symObjAddr: 0x4C, symBinAddr: 0x100002194, symSize: 0x40 }
  - { offsetInCU: 0x3AE43, offset: 0x3AE43, size: 0x8, addend: 0x0, symName: __ZSt3minImERKT_S2_S2_, symObjAddr: 0x8C, symBinAddr: 0x1000021D4, symSize: 0x38 }
  - { offsetInCU: 0x3AE7B, offset: 0x3AE7B, size: 0x8, addend: 0x0, symName: __ZdlPvS_, symObjAddr: 0x34, symBinAddr: 0x10000217C, symSize: 0x18 }
  - { offsetInCU: 0x3AE83, offset: 0x3AE83, size: 0x8, addend: 0x0, symName: __ZNSt11char_traitsIcE6lengthEPKc, symObjAddr: 0x4C, symBinAddr: 0x100002194, symSize: 0x40 }
  - { offsetInCU: 0x3AEBB, offset: 0x3AEBB, size: 0x8, addend: 0x0, symName: __ZnwmPv, symObjAddr: 0x1C, symBinAddr: 0x100002164, symSize: 0x18 }
  - { offsetInCU: 0x3AEC3, offset: 0x3AEC3, size: 0x8, addend: 0x0, symName: __ZdlPvS_, symObjAddr: 0x34, symBinAddr: 0x10000217C, symSize: 0x18 }
  - { offsetInCU: 0x3AF26, offset: 0x3AF26, size: 0x8, addend: 0x0, symName: __ZSt17__size_to_integerm, symObjAddr: 0x8, symBinAddr: 0x100002150, symSize: 0x14 }
  - { offsetInCU: 0x3AF2E, offset: 0x3AF2E, size: 0x8, addend: 0x0, symName: __ZnwmPv, symObjAddr: 0x1C, symBinAddr: 0x100002164, symSize: 0x18 }
  - { offsetInCU: 0x3AF72, offset: 0x3AF72, size: 0x8, addend: 0x0, symName: __ZSt23__is_constant_evaluatedv, symObjAddr: 0x0, symBinAddr: 0x100002148, symSize: 0x8 }
  - { offsetInCU: 0x3AF7A, offset: 0x3AF7A, size: 0x8, addend: 0x0, symName: __ZSt17__size_to_integerm, symObjAddr: 0x8, symBinAddr: 0x100002150, symSize: 0x14 }
...
